---
triple:          'arm64-apple-darwin'
binary-path:     a.out
relocations:
  - { offsetInCU: 0x465C, offset: 0x465C, size: 0x8, addend: 0x0, symName: __ZNSt3__111__sift_downB8ue170006INS_17_ClassicAlgPolicyERPFb3JobS2_EPS2_EEvT1_OT0_NS_15iterator_traitsIS7_E15difference_typeES7_, symObjAddr: 0x11E0, symBinAddr: 0x100004B94, symSize: 0x3B4 }
  - { offsetInCU: 0x4710, offset: 0x4710, size: 0x8, addend: 0x0, symName: __ZNSt3__117__floyd_sift_downB8ue170006INS_17_ClassicAlgPolicyERPFb3JobS2_EPS2_EET1_S7_OT0_NS_15iterator_traitsIS7_E15difference_typeE, symObjAddr: 0x17FC, symBinAddr: 0x1000051B0, symSize: 0x19C }
  - { offsetInCU: 0x47A9, offset: 0x47A9, size: 0x8, addend: 0x0, symName: __ZNSt3__111__introsortINS_17_ClassicAlgPolicyERPFb3JobS2_EPS2_Lb0EEEvT1_S7_T0_NS_15iterator_traitsIS7_E15difference_typeEb, symObjAddr: 0x1CDC, symBinAddr: 0x100005690, symSize: 0x5CC }
  - { offsetInCU: 0x48DC, offset: 0x48DC, size: 0x8, addend: 0x0, symName: __ZNSt3__126__insertion_sort_unguardedB8ue170006INS_17_ClassicAlgPolicyERPFb3JobS2_EPS2_EEvT1_S7_T0_, symObjAddr: 0x25E8, symBinAddr: 0x100005F9C, symSize: 0x210 }
  - { offsetInCU: 0x49D2, offset: 0x49D2, size: 0x8, addend: 0x0, symName: __ZNSt3__131__partition_with_equals_on_leftB8ue170006INS_17_ClassicAlgPolicyEP3JobRPFbS2_S2_EEET0_S7_S7_T1_, symObjAddr: 0x2BEC, symBinAddr: 0x1000065A0, symSize: 0x444 }
  - { offsetInCU: 0x4A93, offset: 0x4A93, size: 0x8, addend: 0x0, symName: __ZNSt3__118__bitset_partitionB8ue170006INS_17_ClassicAlgPolicyEP3JobRPFbS2_S2_EEENS_4pairIT0_bEES8_S8_T1_, symObjAddr: 0x3030, symBinAddr: 0x1000069E4, symSize: 0x4CC }
  - { offsetInCU: 0x4B94, offset: 0x4B94, size: 0x8, addend: 0x0, symName: __ZNSt3__124__swap_bitmap_pos_withinB8ue170006INS_17_ClassicAlgPolicyEP3JobEEvRT0_S5_RyS6_, symObjAddr: 0x4910, symBinAddr: 0x1000082C4, symSize: 0x1E8 }
  - { offsetInCU: 0x4C61, offset: 0x4C61, size: 0x8, addend: 0x0, symName: __ZNSt3__132__partition_with_equals_on_rightB8ue170006INS_17_ClassicAlgPolicyEP3JobRPFbS2_S2_EEENS_4pairIT0_bEES8_S8_T1_, symObjAddr: 0x34FC, symBinAddr: 0x100006EB0, symSize: 0x410 }
  - { offsetInCU: 0x4D32, offset: 0x4D32, size: 0x8, addend: 0x0, symName: __ZNSt3__127__insertion_sort_incompleteB8ue170006INS_17_ClassicAlgPolicyERPFb3JobS2_EPS2_EEbT1_S7_T0_, symObjAddr: 0x390C, symBinAddr: 0x1000072C0, symSize: 0x458 }
  - { offsetInCU: 0x78E7, offset: 0x78E7, size: 0x8, addend: 0x0, symName: __ZNSt3__113__fill_n_trueB8ue170006INS_6vectorIbNS_9allocatorIbEEEEEEvNS_14__bit_iteratorIT_Lb0EXLi0EEEENS6_9size_typeE, symObjAddr: 0x646C, symBinAddr: 0x100009E20, symSize: 0x160 }
  - { offsetInCU: 0x79AC, offset: 0x79AC, size: 0x8, addend: 0x0, symName: __ZNSt3__114__fill_n_falseB8ue170006INS_6vectorIbNS_9allocatorIbEEEEEEvNS_14__bit_iteratorIT_Lb0EXLi0EEEENS6_9size_typeE, symObjAddr: 0x6600, symBinAddr: 0x100009FB4, symSize: 0x15C }
  - { offsetInCU: 0x7C84, offset: 0x7C84, size: 0x8, addend: 0x0, symName: __ZNSt3__111__sift_downB8ue170006INS_17_ClassicAlgPolicyERNS_6__lessIvvEEPiEEvT1_OT0_NS_15iterator_traitsIS6_E15difference_typeES6_, symObjAddr: 0x82C0, symBinAddr: 0x10000BC74, symSize: 0x20C }
  - { offsetInCU: 0x7D31, offset: 0x7D31, size: 0x8, addend: 0x0, symName: __ZNSt3__117__floyd_sift_downB8ue170006INS_17_ClassicAlgPolicyERNS_6__lessIvvEEPiEET1_S6_OT0_NS_15iterator_traitsIS6_E15difference_typeE, symObjAddr: 0x86FC, symBinAddr: 0x10000C0B0, symSize: 0x100 }
  - { offsetInCU: 0x7DC9, offset: 0x7DC9, size: 0x8, addend: 0x0, symName: __ZNSt3__124__put_character_sequenceB8ue170006IcNS_11char_traitsIcEEEERNS_13basic_ostreamIT_T0_EES7_PKS4_m, symObjAddr: 0x89D8, symBinAddr: 0x10000C38C, symSize: 0x1F4 }
  - { offsetInCU: 0x9F0F, offset: 0x9F0F, size: 0x8, addend: 0x0, symName: __ZNSt3__14sortB8ue170006INS_11__wrap_iterIP3JobEEPFbS2_S2_EEEvT_S7_T0_, symObjAddr: 0x4E4, symBinAddr: 0x100003E98, symSize: 0x48 }
  - { offsetInCU: 0x9F69, offset: 0x9F69, size: 0x8, addend: 0x0, symName: __ZNSt3__13minB8ue170006IiEERKT_S3_S3_, symObjAddr: 0x630, symBinAddr: 0x100003FE4, symSize: 0x2C }
  - { offsetInCU: 0x9FAC, offset: 0x9FAC, size: 0x8, addend: 0x0, symName: __ZNSt3__14sortB8ue170006INS_11__wrap_iterIPiEEEEvT_S4_, symObjAddr: 0x7EC, symBinAddr: 0x1000041A0, symSize: 0x3C }
  - { offsetInCU: 0x9FEE, offset: 0x9FEE, size: 0x8, addend: 0x0, symName: __ZNSt3__1lsB8ue170006INS_11char_traitsIcEEEERNS_13basic_ostreamIcT_EES6_c, symObjAddr: 0x8B0, symBinAddr: 0x100004264, symSize: 0x34 }
  - { offsetInCU: 0xA034, offset: 0xA034, size: 0x8, addend: 0x0, symName: __ZNSt3__14endlB8ue170006IcNS_11char_traitsIcEEEERNS_13basic_ostreamIT_T0_EES7_, symObjAddr: 0x910, symBinAddr: 0x1000042C4, symSize: 0x58 }
  - { offsetInCU: 0xA074, offset: 0xA074, size: 0x8, addend: 0x0, symName: __ZNSt3__111__sort_implB8ue170006INS_17_ClassicAlgPolicyENS_11__wrap_iterIP3JobEEPFbS3_S3_EEEvT0_S8_RT1_, symObjAddr: 0xCBC, symBinAddr: 0x100004670, symSize: 0x108 }
  - { offsetInCU: 0xA0D7, offset: 0xA0D7, size: 0x8, addend: 0x0, symName: __ZNSt3__123__debug_randomize_rangeB8ue170006INS_17_ClassicAlgPolicyENS_11__wrap_iterIP3JobEES5_EEvT0_T1_, symObjAddr: 0xDC4, symBinAddr: 0x100004778, symSize: 0x14 }
  - { offsetInCU: 0xA128, offset: 0xA128, size: 0x8, addend: 0x0, symName: __ZNSt3__130__libcpp_is_constant_evaluatedB8ue170006Ev, symObjAddr: 0xDD8, symBinAddr: 0x10000478C, symSize: 0xC }
  - { offsetInCU: 0xA145, offset: 0xA145, size: 0x8, addend: 0x0, symName: __ZNSt3__114__partial_sortB8ue170006INS_17_ClassicAlgPolicyEPFb3JobS2_EPS2_S5_EET1_S6_S6_T2_RT0_, symObjAddr: 0xDE4, symBinAddr: 0x100004798, symSize: 0x94 }
  - { offsetInCU: 0xA1CD, offset: 0xA1CD, size: 0x8, addend: 0x0, symName: __ZNSt3__113__unwrap_iterB8ue170006INS_11__wrap_iterIP3JobEENS_18__unwrap_iter_implIS4_Lb1EEELi0EEEDTclsrT0_8__unwrapclsr3stdE7declvalIT_EEEES8_, symObjAddr: 0xE78, symBinAddr: 0x10000482C, symSize: 0x2C }
  - { offsetInCU: 0xA211, offset: 0xA211, size: 0x8, addend: 0x0, symName: __ZNSt3__115__sort_dispatchB8ue170006INS_17_ClassicAlgPolicyEP3JobPFbS2_S2_EEEvT0_S6_RT1_, symObjAddr: 0xEA4, symBinAddr: 0x100004858, symSize: 0x64 }
  - { offsetInCU: 0xA28F, offset: 0xA28F, size: 0x8, addend: 0x0, symName: __ZNSt3__135__check_strict_weak_ordering_sortedB8ue170006IP3JobPFbS1_S1_EEEvT_S5_RT0_, symObjAddr: 0xF08, symBinAddr: 0x1000048BC, symSize: 0x18 }
  - { offsetInCU: 0xA4B3, offset: 0xA4B3, size: 0x8, addend: 0x0, symName: __ZNSt3__123__debug_randomize_rangeB8ue170006INS_17_ClassicAlgPolicyEP3JobS3_EEvT0_T1_, symObjAddr: 0xF38, symBinAddr: 0x1000048EC, symSize: 0x14 }
  - { offsetInCU: 0xA504, offset: 0xA504, size: 0x8, addend: 0x0, symName: __ZNSt3__119__partial_sort_implB8ue170006INS_17_ClassicAlgPolicyERPFb3JobS2_EPS2_S6_EET1_S7_S7_T2_OT0_, symObjAddr: 0xF4C, symBinAddr: 0x100004900, symSize: 0x1A0 }
  - { offsetInCU: 0xA59C, offset: 0xA59C, size: 0x8, addend: 0x0, symName: __ZNSt3__111__make_heapB8ue170006INS_17_ClassicAlgPolicyERPFb3JobS2_EPS2_EEvT1_S7_OT0_, symObjAddr: 0x10EC, symBinAddr: 0x100004AA0, symSize: 0xC0 }
  - { offsetInCU: 0xA63E, offset: 0xA63E, size: 0x8, addend: 0x0, symName: __ZNSt3__111__sort_heapB8ue170006INS_17_ClassicAlgPolicyERPFb3JobS2_EPS2_EEvT1_S7_OT0_, symObjAddr: 0x1594, symBinAddr: 0x100004F48, symSize: 0xA8 }
  - { offsetInCU: 0xA6E0, offset: 0xA6E0, size: 0x8, addend: 0x0, symName: __ZNSt3__19iter_swapB8ue170006IP3JobS2_EEvT_T0_, symObjAddr: 0x163C, symBinAddr: 0x100004FF0, symSize: 0x2C }
  - { offsetInCU: 0xA728, offset: 0xA728, size: 0x8, addend: 0x0, symName: __ZNSt3__14swapB8ue170006I3JobEEvRT_S3_, symObjAddr: 0x1668, symBinAddr: 0x10000501C, symSize: 0x54 }
  - { offsetInCU: 0xA79D, offset: 0xA79D, size: 0x8, addend: 0x0, symName: __ZNSt3__110__pop_heapB8ue170006INS_17_ClassicAlgPolicyEPFb3JobS2_EPS2_EEvT1_S6_RT0_NS_15iterator_traitsIS6_E15difference_typeE, symObjAddr: 0x16E8, symBinAddr: 0x10000509C, symSize: 0x114 }
  - { offsetInCU: 0xA84D, offset: 0xA84D, size: 0x8, addend: 0x0, symName: __ZNSt3__19__sift_upB8ue170006INS_17_ClassicAlgPolicyERPFb3JobS2_EPS2_EEvT1_S7_OT0_NS_15iterator_traitsIS7_E15difference_typeE, symObjAddr: 0x1998, symBinAddr: 0x10000534C, symSize: 0x21C }
  - { offsetInCU: 0xA955, offset: 0xA955, size: 0x8, addend: 0x0, symName: __ZNSt3__112__to_addressB8ue170006INS_11__wrap_iterIP3JobEEvEEu7__decayIDTclsr19__to_address_helperIT_EE6__callclsr3stdE7declvalIRKS5_EEEEES7_, symObjAddr: 0x1BDC, symBinAddr: 0x100005590, symSize: 0x24 }
  - { offsetInCU: 0xAA30, offset: 0xAA30, size: 0x8, addend: 0x0, symName: __ZNSt3__112__to_addressB8ue170006I3JobEEPT_S3_, symObjAddr: 0x1C5C, symBinAddr: 0x100005610, symSize: 0x14 }
  - { offsetInCU: 0xAA65, offset: 0xAA65, size: 0x8, addend: 0x0, symName: __ZNSt3__17__log2iB8ue170006IlEET_S1_, symObjAddr: 0x1C88, symBinAddr: 0x10000563C, symSize: 0x54 }
  - { offsetInCU: 0xAA9C, offset: 0xAA9C, size: 0x8, addend: 0x0, symName: __ZNSt3__112__libcpp_clzB8ue170006Em, symObjAddr: 0x22C0, symBinAddr: 0x100005C74, symSize: 0x1C }
  - { offsetInCU: 0xAAC8, offset: 0xAAC8, size: 0x8, addend: 0x0, symName: __ZNSt3__124__sort3_maybe_branchlessB8ue170006INS_17_ClassicAlgPolicyERPFb3JobS2_EPS2_EENS_9enable_ifIXntsr21__use_branchless_sortIT0_T1_EE5valueEvE4typeES9_S9_S9_S8_, symObjAddr: 0x22DC, symBinAddr: 0x100005C90, symSize: 0x3C }
  - { offsetInCU: 0xAB39, offset: 0xAB39, size: 0x8, addend: 0x0, symName: __ZNSt3__124__sort4_maybe_branchlessB8ue170006INS_17_ClassicAlgPolicyERPFb3JobS2_EPS2_EENS_9enable_ifIXntsr21__use_branchless_sortIT0_T1_EE5valueEvE4typeES9_S9_S9_S9_S8_, symObjAddr: 0x2318, symBinAddr: 0x100005CCC, symSize: 0x44 }
  - { offsetInCU: 0xABB8, offset: 0xABB8, size: 0x8, addend: 0x0, symName: __ZNSt3__124__sort5_maybe_branchlessB8ue170006INS_17_ClassicAlgPolicyERPFb3JobS2_EPS2_EENS_9enable_ifIXntsr21__use_branchless_sortIT0_T1_EE5valueEvE4typeES9_S9_S9_S9_S9_S8_, symObjAddr: 0x235C, symBinAddr: 0x100005D10, symSize: 0x4C }
  - { offsetInCU: 0xAC45, offset: 0xAC45, size: 0x8, addend: 0x0, symName: __ZNSt3__116__insertion_sortB8ue170006INS_17_ClassicAlgPolicyERPFb3JobS2_EPS2_EEvT1_S7_T0_, symObjAddr: 0x23A8, symBinAddr: 0x100005D5C, symSize: 0x240 }
  - { offsetInCU: 0xAD0D, offset: 0xAD0D, size: 0x8, addend: 0x0, symName: __ZNSt3__114__partial_sortB8ue170006INS_17_ClassicAlgPolicyERPFb3JobS2_EPS2_S6_EET1_S7_S7_T2_RT0_, symObjAddr: 0x27F8, symBinAddr: 0x1000061AC, symSize: 0x94 }
  - { offsetInCU: 0xAD95, offset: 0xAD95, size: 0x8, addend: 0x0, symName: __ZNSt3__17__sort3B8ue170006INS_17_ClassicAlgPolicyERPFb3JobS2_EPS2_EEjT1_S7_S7_T0_, symObjAddr: 0x288C, symBinAddr: 0x100006240, symSize: 0x32C }
  - { offsetInCU: 0xAE19, offset: 0xAE19, size: 0x8, addend: 0x0, symName: __ZNSt3__17__sort4B8ue170006INS_17_ClassicAlgPolicyERPFb3JobS2_EPS2_EEvT1_S7_S7_S7_T0_, symObjAddr: 0x3D7C, symBinAddr: 0x100007730, symSize: 0x1F0 }
  - { offsetInCU: 0xAE99, offset: 0xAE99, size: 0x8, addend: 0x0, symName: __ZNSt3__17__sort5B8ue170006INS_17_ClassicAlgPolicyERPFb3JobS2_EPS2_EEvT1_S7_S7_S7_S7_T0_, symObjAddr: 0x3F6C, symBinAddr: 0x100007920, symSize: 0x274 }
  - { offsetInCU: 0xAF28, offset: 0xAF28, size: 0x8, addend: 0x0, symName: __ZNSt3__122__populate_left_bitsetB8ue170006IRPFb3JobS1_EPS1_S1_EEvT0_T_RT1_Ry, symObjAddr: 0x41E0, symBinAddr: 0x100007B94, symSize: 0x130 }
  - { offsetInCU: 0xAFE4, offset: 0xAFE4, size: 0x8, addend: 0x0, symName: __ZNSt3__123__populate_right_bitsetB8ue170006IRPFb3JobS1_EPS1_S1_EEvT0_T_RT1_Ry, symObjAddr: 0x4310, symBinAddr: 0x100007CC4, symSize: 0x128 }
  - { offsetInCU: 0xB0A0, offset: 0xB0A0, size: 0x8, addend: 0x0, symName: __ZNSt3__117__swap_bitmap_posB8ue170006INS_17_ClassicAlgPolicyEP3JobEEvT0_S4_RyS5_, symObjAddr: 0x4438, symBinAddr: 0x100007DEC, symSize: 0x104 }
  - { offsetInCU: 0xB141, offset: 0xB141, size: 0x8, addend: 0x0, symName: __ZNSt3__133__bitset_partition_partial_blocksB8ue170006INS_17_ClassicAlgPolicyERPFb3JobS2_EPS2_S2_EEvRT1_S8_T0_RT2_RySC_, symObjAddr: 0x453C, symBinAddr: 0x100007EF0, symSize: 0x3D4 }
  - { offsetInCU: 0xB2CD, offset: 0xB2CD, size: 0x8, addend: 0x0, symName: __ZNSt3__19make_pairB8ue170006IRP3JobRbEENS_4pairINS_18__unwrap_ref_decayIT_E4typeENS6_IT0_E4typeEEEOS7_OSA_, symObjAddr: 0x4AF8, symBinAddr: 0x1000084AC, symSize: 0x38 }
  - { offsetInCU: 0xB31C, offset: 0xB31C, size: 0x8, addend: 0x0, symName: __ZNSt3__112__libcpp_ctzB8ue170006Ey, symObjAddr: 0x4B30, symBinAddr: 0x1000084E4, symSize: 0x20 }
  - { offsetInCU: 0xB348, offset: 0xB348, size: 0x8, addend: 0x0, symName: __ZNSt3__113__libcpp_blsrB8ue170006Ey, symObjAddr: 0x4B50, symBinAddr: 0x100008504, symSize: 0x2C }
  - { offsetInCU: 0xB374, offset: 0xB374, size: 0x8, addend: 0x0, symName: __ZNSt3__112__libcpp_clzB8ue170006Ey, symObjAddr: 0x4BB0, symBinAddr: 0x100008564, symSize: 0x1C }
  - { offsetInCU: 0xB44D, offset: 0xB44D, size: 0x8, addend: 0x0, symName: __ZNSt3__122__make_exception_guardB8ue170006INS_6vectorIiNS_9allocatorIiEEE16__destroy_vectorEEENS_28__exception_guard_exceptionsIT_EES7_, symObjAddr: 0x4D60, symBinAddr: 0x100008714, symSize: 0x40 }
  - { offsetInCU: 0xB482, offset: 0xB482, size: 0x8, addend: 0x0, symName: __ZNSt3__119__allocate_at_leastB8ue170006INS_9allocatorIiEEEENS_19__allocation_resultINS_16allocator_traitsIT_E7pointerEEERS5_m, symObjAddr: 0x5170, symBinAddr: 0x100008B24, symSize: 0x40 }
  - { offsetInCU: 0xB4C5, offset: 0xB4C5, size: 0x8, addend: 0x0, symName: __ZNSt3__13minB8ue170006ImEERKT_S3_S3_, symObjAddr: 0x52AC, symBinAddr: 0x100008C60, symSize: 0x2C }
  - { offsetInCU: 0xB709, offset: 0xB709, size: 0x8, addend: 0x0, symName: __ZNSt3__13minB8ue170006ImNS_6__lessIvvEEEERKT_S5_S5_T0_, symObjAddr: 0x5338, symBinAddr: 0x100008CEC, symSize: 0x54 }
  - { offsetInCU: 0xB7D9, offset: 0xB7D9, size: 0x8, addend: 0x0, symName: __ZNSt3__120__throw_length_errorB8ue170006EPKc, symObjAddr: 0x5414, symBinAddr: 0x100008DC8, symSize: 0x64 }
  - { offsetInCU: 0xB803, offset: 0xB803, size: 0x8, addend: 0x0, symName: __ZNSt3__117__libcpp_allocateB8ue170006Emm, symObjAddr: 0x55B0, symBinAddr: 0x100008F64, symSize: 0x28 }
  - { offsetInCU: 0xB840, offset: 0xB840, size: 0x8, addend: 0x0, symName: __ZNSt3__121__libcpp_operator_newB8ue170006IJmEEEPvDpT_, symObjAddr: 0x55D8, symBinAddr: 0x100008F8C, symSize: 0x24 }
  - { offsetInCU: 0xB879, offset: 0xB879, size: 0x8, addend: 0x0, symName: __ZNSt3__112__to_addressB8ue170006IiEEPT_S2_, symObjAddr: 0x56F4, symBinAddr: 0x1000090A8, symSize: 0x14 }
  - { offsetInCU: 0xB8AE, offset: 0xB8AE, size: 0x8, addend: 0x0, symName: __ZNSt3__119__libcpp_deallocateB8ue170006EPvmm, symObjAddr: 0x5BCC, symBinAddr: 0x100009580, symSize: 0x30 }
  - { offsetInCU: 0xB8F6, offset: 0xB8F6, size: 0x8, addend: 0x0, symName: __ZNSt3__127__do_deallocate_handle_sizeB8ue170006IJEEEvPvmDpT_, symObjAddr: 0x5BFC, symBinAddr: 0x1000095B0, symSize: 0x28 }
  - { offsetInCU: 0xB934, offset: 0xB934, size: 0x8, addend: 0x0, symName: __ZNSt3__124__libcpp_operator_deleteB8ue170006IJPvEEEvDpT_, symObjAddr: 0x5C24, symBinAddr: 0x1000095D8, symSize: 0x24 }
  - { offsetInCU: 0xB969, offset: 0xB969, size: 0x8, addend: 0x0, symName: __ZNSt3__119__allocate_at_leastB8ue170006INS_9allocatorImEEEENS_19__allocation_resultINS_16allocator_traitsIT_E7pointerEEERS5_m, symObjAddr: 0x60CC, symBinAddr: 0x100009A80, symSize: 0x40 }
  - { offsetInCU: 0xB9D1, offset: 0xB9D1, size: 0x8, addend: 0x0, symName: __ZNSt3__114__construct_atB8ue170006ImJEPmEEPT_S3_DpOT0_, symObjAddr: 0x6180, symBinAddr: 0x100009B34, symSize: 0x20 }
  - { offsetInCU: 0xBA2D, offset: 0xBA2D, size: 0x8, addend: 0x0, symName: __ZNSt3__112__to_addressB8ue170006ImEEPT_S2_, symObjAddr: 0x61A0, symBinAddr: 0x100009B54, symSize: 0x14 }
  - { offsetInCU: 0xBC64, offset: 0xBC64, size: 0x8, addend: 0x0, symName: __ZNSt3__16fill_nB8ue170006INS_6vectorIbNS_9allocatorIbEEEEEEvNS_14__bit_iteratorIT_Lb0EXLi0EEEENS6_9size_typeEb, symObjAddr: 0x6374, symBinAddr: 0x100009D28, symSize: 0x94 }
  - { offsetInCU: 0xBCB6, offset: 0xBCB6, size: 0x8, addend: 0x0, symName: __ZNSt3__16fill_nB8ue170006IPmmmEET_S2_T0_RKT1_, symObjAddr: 0x675C, symBinAddr: 0x10000A110, symSize: 0x44 }
  - { offsetInCU: 0xBD19, offset: 0xBD19, size: 0x8, addend: 0x0, symName: __ZNSt3__18__fill_nB8ue170006IPmmmEET_S2_T0_RKT1_, symObjAddr: 0x67A0, symBinAddr: 0x10000A154, symSize: 0x64 }
  - { offsetInCU: 0xBD7C, offset: 0xBD7C, size: 0x8, addend: 0x0, symName: __ZNSt3__121__convert_to_integralB8ue170006Em, symObjAddr: 0x6804, symBinAddr: 0x10000A1B8, symSize: 0x14 }
  - { offsetInCU: 0xBDA8, offset: 0xBDA8, size: 0x8, addend: 0x0, symName: __ZNSt3__16fill_nB8ue170006IPmmiEET_S2_T0_RKT1_, symObjAddr: 0x6848, symBinAddr: 0x10000A1FC, symSize: 0x44 }
  - { offsetInCU: 0xBE0B, offset: 0xBE0B, size: 0x8, addend: 0x0, symName: __ZNSt3__18__fill_nB8ue170006IPmmiEET_S2_T0_RKT1_, symObjAddr: 0x688C, symBinAddr: 0x10000A240, symSize: 0x64 }
  - { offsetInCU: 0xBE6E, offset: 0xBE6E, size: 0x8, addend: 0x0, symName: __ZNSt3__13minB8ue170006IiNS_6__lessIvvEEEERKT_S5_S5_T0_, symObjAddr: 0x6B08, symBinAddr: 0x10000A4BC, symSize: 0x54 }
  - { offsetInCU: 0xBEC8, offset: 0xBEC8, size: 0x8, addend: 0x0, symName: __ZNSt3__13maxB8ue170006ImEERKT_S3_S3_, symObjAddr: 0x7048, symBinAddr: 0x10000A9FC, symSize: 0x2C }
  - { offsetInCU: 0xBF0B, offset: 0xBF0B, size: 0x8, addend: 0x0, symName: __ZNSt3__13maxB8ue170006ImNS_6__lessIvvEEEERKT_S5_S5_T0_, symObjAddr: 0x7074, symBinAddr: 0x10000AA28, symSize: 0x54 }
  - { offsetInCU: 0xBF65, offset: 0xBF65, size: 0x8, addend: 0x0, symName: __ZNSt3__142__uninitialized_allocator_move_if_noexceptB8ue170006INS_9allocatorIiEENS_16reverse_iteratorIPiEES5_ivEET1_RT_T0_S9_S6_, symObjAddr: 0x72F4, symBinAddr: 0x10000ACA8, symSize: 0xE8 }
  - { offsetInCU: 0xBFE2, offset: 0xBFE2, size: 0x8, addend: 0x0, symName: __ZNSt3__14swapB8ue170006IPiEEvRT_S3_, symObjAddr: 0x7428, symBinAddr: 0x10000ADDC, symSize: 0x3C }
  - { offsetInCU: 0xC033, offset: 0xC033, size: 0x8, addend: 0x0, symName: __ZNSt3__1neB8ue170006IPiS1_EEbRKNS_16reverse_iteratorIT_EERKNS2_IT0_EE, symObjAddr: 0x7464, symBinAddr: 0x10000AE18, symSize: 0x48 }
  - { offsetInCU: 0xC0A4, offset: 0xC0A4, size: 0x8, addend: 0x0, symName: __ZNSt3__114__construct_atB8ue170006IiJiEPiEEPT_S3_DpOT0_, symObjAddr: 0x74AC, symBinAddr: 0x10000AE60, symSize: 0x2C }
  - { offsetInCU: 0xC114, offset: 0xC114, size: 0x8, addend: 0x0, symName: __ZNSt3__112__to_addressB8ue170006INS_16reverse_iteratorIPiEEvEEu7__decayIDTclsr19__to_address_helperIT_EE6__callclsr3stdE7declvalIRKS4_EEEEES6_, symObjAddr: 0x74D8, symBinAddr: 0x10000AE8C, symSize: 0x24 }
  - { offsetInCU: 0xC14A, offset: 0xC14A, size: 0x8, addend: 0x0, symName: __ZNSt3__14moveB8ue170006INS_16reverse_iteratorIPiEES3_EET0_T_S5_S4_, symObjAddr: 0x7544, symBinAddr: 0x10000AEF8, symSize: 0x78 }
  - { offsetInCU: 0xC1CD, offset: 0xC1CD, size: 0x8, addend: 0x0, symName: __ZNSt3__16__moveB8ue170006INS_17_ClassicAlgPolicyENS_16reverse_iteratorIPiEES4_S4_EENS_4pairIT0_T2_EES6_T1_S7_, symObjAddr: 0x762C, symBinAddr: 0x10000AFE0, symSize: 0x64 }
  - { offsetInCU: 0xC239, offset: 0xC239, size: 0x8, addend: 0x0, symName: __ZNSt3__123__dispatch_copy_or_moveB8ue170006INS_17_ClassicAlgPolicyENS_11__move_loopIS1_EENS_14__move_trivialENS_16reverse_iteratorIPiEES7_S7_EENS_4pairIT2_T4_EES9_T3_SA_, symObjAddr: 0x7690, symBinAddr: 0x10000B044, symSize: 0x64 }
  - { offsetInCU: 0xC2B7, offset: 0xC2B7, size: 0x8, addend: 0x0, symName: __ZNSt3__121__unwrap_and_dispatchB8ue170006INS_10__overloadINS_11__move_loopINS_17_ClassicAlgPolicyEEENS_14__move_trivialEEENS_16reverse_iteratorIPiEES9_S9_Li0EEENS_4pairIT0_T2_EESB_T1_SC_, symObjAddr: 0x76F4, symBinAddr: 0x10000B0A8, symSize: 0x12C }
  - { offsetInCU: 0xC347, offset: 0xC347, size: 0x8, addend: 0x0, symName: __ZNSt3__114__unwrap_rangeB8ue170006INS_16reverse_iteratorIPiEES3_EENS_4pairIT0_S5_EET_S7_, symObjAddr: 0x7820, symBinAddr: 0x10000B1D4, symSize: 0x84 }
  - { offsetInCU: 0xC4D1, offset: 0xC4D1, size: 0x8, addend: 0x0, symName: __ZNSt3__113__unwrap_iterB8ue170006INS_16reverse_iteratorIPiEENS_18__unwrap_iter_implIS3_Lb0EEELi0EEEDTclsrT0_8__unwrapclsr3stdE7declvalIT_EEEES7_, symObjAddr: 0x7944, symBinAddr: 0x10000B2F8, symSize: 0x44 }
  - { offsetInCU: 0xC515, offset: 0xC515, size: 0x8, addend: 0x0, symName: __ZNSt3__19make_pairB8ue170006INS_16reverse_iteratorIPiEES3_EENS_4pairINS_18__unwrap_ref_decayIT_E4typeENS5_IT0_E4typeEEEOS6_OS9_, symObjAddr: 0x7988, symBinAddr: 0x10000B33C, symSize: 0x38 }
  - { offsetInCU: 0xC564, offset: 0xC564, size: 0x8, addend: 0x0, symName: __ZNSt3__114__rewrap_rangeB8ue170006INS_16reverse_iteratorIPiEES3_EET_S4_T0_, symObjAddr: 0x79C0, symBinAddr: 0x10000B374, symSize: 0x5C }
  - { offsetInCU: 0xC5B0, offset: 0xC5B0, size: 0x8, addend: 0x0, symName: __ZNSt3__113__rewrap_iterB8ue170006INS_16reverse_iteratorIPiEES3_NS_18__unwrap_iter_implIS3_Lb0EEEEET_S6_T0_, symObjAddr: 0x7A1C, symBinAddr: 0x10000B3D0, symSize: 0x88 }
  - { offsetInCU: 0xC671, offset: 0xC671, size: 0x8, addend: 0x0, symName: __ZNSt3__14sortB8ue170006INS_11__wrap_iterIPiEENS_6__lessIvvEEEEvT_S6_T0_, symObjAddr: 0x7E30, symBinAddr: 0x10000B7E4, symSize: 0x40 }
  - { offsetInCU: 0xC6CB, offset: 0xC6CB, size: 0x8, addend: 0x0, symName: __ZNSt3__111__sort_implB8ue170006INS_17_ClassicAlgPolicyENS_11__wrap_iterIPiEENS_6__lessIvvEEEEvT0_S7_RT1_, symObjAddr: 0x7E70, symBinAddr: 0x10000B824, symSize: 0x108 }
  - { offsetInCU: 0xC72E, offset: 0xC72E, size: 0x8, addend: 0x0, symName: __ZNSt3__123__debug_randomize_rangeB8ue170006INS_17_ClassicAlgPolicyENS_11__wrap_iterIPiEES4_EEvT0_T1_, symObjAddr: 0x7F78, symBinAddr: 0x10000B92C, symSize: 0x14 }
  - { offsetInCU: 0xC77F, offset: 0xC77F, size: 0x8, addend: 0x0, symName: __ZNSt3__114__partial_sortB8ue170006INS_17_ClassicAlgPolicyENS_6__lessIvvEEPiS4_EET1_S5_S5_T2_RT0_, symObjAddr: 0x7F8C, symBinAddr: 0x10000B940, symSize: 0x94 }
  - { offsetInCU: 0xC807, offset: 0xC807, size: 0x8, addend: 0x0, symName: __ZNSt3__113__unwrap_iterB8ue170006INS_11__wrap_iterIPiEENS_18__unwrap_iter_implIS3_Lb1EEELi0EEEDTclsrT0_8__unwrapclsr3stdE7declvalIT_EEEES7_, symObjAddr: 0x8020, symBinAddr: 0x10000B9D4, symSize: 0x2C }
  - { offsetInCU: 0xC84B, offset: 0xC84B, size: 0x8, addend: 0x0, symName: __ZNSt3__115__sort_dispatchB8ue170006INS_17_ClassicAlgPolicyEiLi0EEEvPT0_S3_RNS_6__lessIvvEE, symObjAddr: 0x804C, symBinAddr: 0x10000BA00, symSize: 0x34 }
  - { offsetInCU: 0xC8B6, offset: 0xC8B6, size: 0x8, addend: 0x0, symName: __ZNSt3__135__check_strict_weak_ordering_sortedB8ue170006IPiNS_6__lessIvvEEEEvT_S4_RT0_, symObjAddr: 0x8080, symBinAddr: 0x10000BA34, symSize: 0x18 }
  - { offsetInCU: 0xC90C, offset: 0xC90C, size: 0x8, addend: 0x0, symName: __ZNSt3__123__debug_randomize_rangeB8ue170006INS_17_ClassicAlgPolicyEPiS2_EEvT0_T1_, symObjAddr: 0x80B0, symBinAddr: 0x10000BA64, symSize: 0x14 }
  - { offsetInCU: 0xC95D, offset: 0xC95D, size: 0x8, addend: 0x0, symName: __ZNSt3__119__partial_sort_implB8ue170006INS_17_ClassicAlgPolicyERNS_6__lessIvvEEPiS5_EET1_S6_S6_T2_OT0_, symObjAddr: 0x80C4, symBinAddr: 0x10000BA78, symSize: 0x110 }
  - { offsetInCU: 0xC9F3, offset: 0xC9F3, size: 0x8, addend: 0x0, symName: __ZNSt3__111__make_heapB8ue170006INS_17_ClassicAlgPolicyERNS_6__lessIvvEEPiEEvT1_S6_OT0_, symObjAddr: 0x81D4, symBinAddr: 0x10000BB88, symSize: 0xB8 }
  - { offsetInCU: 0xCA95, offset: 0xCA95, size: 0x8, addend: 0x0, symName: __ZNSt3__111__sort_heapB8ue170006INS_17_ClassicAlgPolicyERNS_6__lessIvvEEPiEEvT1_S6_OT0_, symObjAddr: 0x84CC, symBinAddr: 0x10000BE80, symSize: 0xA8 }
  - { offsetInCU: 0xCB37, offset: 0xCB37, size: 0x8, addend: 0x0, symName: __ZNSt3__19iter_swapB8ue170006IPiS1_EEvT_T0_, symObjAddr: 0x8574, symBinAddr: 0x10000BF28, symSize: 0x2C }
  - { offsetInCU: 0xCB7F, offset: 0xCB7F, size: 0x8, addend: 0x0, symName: __ZNSt3__14swapB8ue170006IiEEvRT_S2_, symObjAddr: 0x85A0, symBinAddr: 0x10000BF54, symSize: 0x3C }
  - { offsetInCU: 0xCBD0, offset: 0xCBD0, size: 0x8, addend: 0x0, symName: __ZNSt3__110__pop_heapB8ue170006INS_17_ClassicAlgPolicyENS_6__lessIvvEEPiEEvT1_S5_RT0_NS_15iterator_traitsIS5_E15difference_typeE, symObjAddr: 0x8608, symBinAddr: 0x10000BFBC, symSize: 0xF4 }
  - { offsetInCU: 0xCC80, offset: 0xCC80, size: 0x8, addend: 0x0, symName: __ZNSt3__19__sift_upB8ue170006INS_17_ClassicAlgPolicyERNS_6__lessIvvEEPiEEvT1_S6_OT0_NS_15iterator_traitsIS6_E15difference_typeE, symObjAddr: 0x87FC, symBinAddr: 0x10000C1B0, symSize: 0x11C }
  - { offsetInCU: 0xCD83, offset: 0xCD83, size: 0x8, addend: 0x0, symName: __ZNSt3__112__to_addressB8ue170006INS_11__wrap_iterIPiEEvEEu7__decayIDTclsr19__to_address_helperIT_EE6__callclsr3stdE7declvalIRKS4_EEEEES6_, symObjAddr: 0x8940, symBinAddr: 0x10000C2F4, symSize: 0x24 }
  - { offsetInCU: 0xCE5E, offset: 0xCE5E, size: 0x8, addend: 0x0, symName: __ZNSt3__116__pad_and_outputB8ue170006IcNS_11char_traitsIcEEEENS_19ostreambuf_iteratorIT_T0_EES6_PKS4_S8_S8_RNS_8ios_baseES4_, symObjAddr: 0x8BE8, symBinAddr: 0x10000C59C, symSize: 0x248 }
  - { offsetInCU: 0xCF2D, offset: 0xCF2D, size: 0x8, addend: 0x0, symName: __ZNSt3__112__to_addressB8ue170006IKcEEPT_S3_, symObjAddr: 0x9158, symBinAddr: 0x10000CB0C, symSize: 0x14 }
  - { offsetInCU: 0xCF95, offset: 0xCF95, size: 0x8, addend: 0x0, symName: __ZNSt3__19use_facetB8ue170006INS_5ctypeIcEEEERKT_RKNS_6localeE, symObjAddr: 0x9430, symBinAddr: 0x10000CDE4, symSize: 0x2C }
  - { offsetInCU: 0xD462, offset: 0xD462, size: 0x8, addend: 0x0, symName: __ZNSt3__119__allocate_at_leastB8ue170006INS_9allocatorI3JobEEEENS_19__allocation_resultINS_16allocator_traitsIT_E7pointerEEERS6_m, symObjAddr: 0xA288, symBinAddr: 0x10000DC3C, symSize: 0x40 }
  - { offsetInCU: 0xD4A5, offset: 0xD4A5, size: 0x8, addend: 0x0, symName: __ZNSt3__142__uninitialized_allocator_move_if_noexceptB8ue170006INS_9allocatorI3JobEENS_16reverse_iteratorIPS2_EES6_S2_vEET1_RT_T0_SA_S7_, symObjAddr: 0xA470, symBinAddr: 0x10000DE24, symSize: 0xE8 }
  - { offsetInCU: 0xD522, offset: 0xD522, size: 0x8, addend: 0x0, symName: __ZNSt3__14swapB8ue170006IP3JobEEvRT_S4_, symObjAddr: 0xA5A4, symBinAddr: 0x10000DF58, symSize: 0x3C }
  - { offsetInCU: 0xD573, offset: 0xD573, size: 0x8, addend: 0x0, symName: __ZNSt3__1neB8ue170006IP3JobS2_EEbRKNS_16reverse_iteratorIT_EERKNS3_IT0_EE, symObjAddr: 0xA6A8, symBinAddr: 0x10000E05C, symSize: 0x48 }
  - { offsetInCU: 0xD5E4, offset: 0xD5E4, size: 0x8, addend: 0x0, symName: __ZNSt3__114__construct_atB8ue170006I3JobJS1_EPS1_EEPT_S4_DpOT0_, symObjAddr: 0xA6F0, symBinAddr: 0x10000E0A4, symSize: 0x34 }
  - { offsetInCU: 0xD654, offset: 0xD654, size: 0x8, addend: 0x0, symName: __ZNSt3__112__to_addressB8ue170006INS_16reverse_iteratorIP3JobEEvEEu7__decayIDTclsr19__to_address_helperIT_EE6__callclsr3stdE7declvalIRKS5_EEEEES7_, symObjAddr: 0xA724, symBinAddr: 0x10000E0D8, symSize: 0x24 }
  - { offsetInCU: 0xD68A, offset: 0xD68A, size: 0x8, addend: 0x0, symName: __ZNSt3__14moveB8ue170006INS_16reverse_iteratorIP3JobEES4_EET0_T_S6_S5_, symObjAddr: 0xA790, symBinAddr: 0x10000E144, symSize: 0x78 }
  - { offsetInCU: 0xD70D, offset: 0xD70D, size: 0x8, addend: 0x0, symName: __ZNSt3__16__moveB8ue170006INS_17_ClassicAlgPolicyENS_16reverse_iteratorIP3JobEES5_S5_EENS_4pairIT0_T2_EES7_T1_S8_, symObjAddr: 0xA878, symBinAddr: 0x10000E22C, symSize: 0x64 }
  - { offsetInCU: 0xD779, offset: 0xD779, size: 0x8, addend: 0x0, symName: __ZNSt3__123__dispatch_copy_or_moveB8ue170006INS_17_ClassicAlgPolicyENS_11__move_loopIS1_EENS_14__move_trivialENS_16reverse_iteratorIP3JobEES8_S8_EENS_4pairIT2_T4_EESA_T3_SB_, symObjAddr: 0xA8DC, symBinAddr: 0x10000E290, symSize: 0x64 }
  - { offsetInCU: 0xD7F7, offset: 0xD7F7, size: 0x8, addend: 0x0, symName: __ZNSt3__121__unwrap_and_dispatchB8ue170006INS_10__overloadINS_11__move_loopINS_17_ClassicAlgPolicyEEENS_14__move_trivialEEENS_16reverse_iteratorIP3JobEESA_SA_Li0EEENS_4pairIT0_T2_EESC_T1_SD_, symObjAddr: 0xA940, symBinAddr: 0x10000E2F4, symSize: 0x12C }
  - { offsetInCU: 0xD887, offset: 0xD887, size: 0x8, addend: 0x0, symName: __ZNSt3__114__unwrap_rangeB8ue170006INS_16reverse_iteratorIP3JobEES4_EENS_4pairIT0_S6_EET_S8_, symObjAddr: 0xAA6C, symBinAddr: 0x10000E420, symSize: 0x84 }
  - { offsetInCU: 0xD980, offset: 0xD980, size: 0x8, addend: 0x0, symName: __ZNSt3__113__unwrap_iterB8ue170006INS_16reverse_iteratorIP3JobEENS_18__unwrap_iter_implIS4_Lb0EEELi0EEEDTclsrT0_8__unwrapclsr3stdE7declvalIT_EEEES8_, symObjAddr: 0xAB98, symBinAddr: 0x10000E54C, symSize: 0x44 }
  - { offsetInCU: 0xD9C4, offset: 0xD9C4, size: 0x8, addend: 0x0, symName: __ZNSt3__19make_pairB8ue170006INS_16reverse_iteratorIP3JobEES4_EENS_4pairINS_18__unwrap_ref_decayIT_E4typeENS6_IT0_E4typeEEEOS7_OSA_, symObjAddr: 0xABDC, symBinAddr: 0x10000E590, symSize: 0x38 }
  - { offsetInCU: 0xDA13, offset: 0xDA13, size: 0x8, addend: 0x0, symName: __ZNSt3__114__rewrap_rangeB8ue170006INS_16reverse_iteratorIP3JobEES4_EET_S5_T0_, symObjAddr: 0xAC14, symBinAddr: 0x10000E5C8, symSize: 0x5C }
  - { offsetInCU: 0xDA5F, offset: 0xDA5F, size: 0x8, addend: 0x0, symName: __ZNSt3__113__rewrap_iterB8ue170006INS_16reverse_iteratorIP3JobEES4_NS_18__unwrap_iter_implIS4_Lb0EEEEET_S7_T0_, symObjAddr: 0xAC70, symBinAddr: 0x10000E624, symSize: 0x88 }
  - { offsetInCU: 0xDAFC, offset: 0xDAFC, size: 0x8, addend: 0x0, symName: __ZNSt3__122__make_exception_guardB8ue170006INS_6vectorI3JobNS_9allocatorIS2_EEE16__destroy_vectorEEENS_28__exception_guard_exceptionsIT_EES8_, symObjAddr: 0xB1FC, symBinAddr: 0x10000EBB0, symSize: 0x40 }
  - { offsetInCU: 0xDB31, offset: 0xDB31, size: 0x8, addend: 0x0, symName: __ZNSt3__130__uninitialized_allocator_copyB8ue170006INS_9allocatorI3JobEEPS2_S4_S4_EET2_RT_T0_T1_S5_, symObjAddr: 0xB424, symBinAddr: 0x10000EDD8, symSize: 0x80 }
  - { offsetInCU: 0xDBCE, offset: 0xDBCE, size: 0x8, addend: 0x0, symName: __ZNSt3__114__unwrap_rangeB8ue170006IP3JobS2_EENS_4pairIT0_S4_EET_S6_, symObjAddr: 0xB4A4, symBinAddr: 0x10000EE58, symSize: 0x60 }
  - { offsetInCU: 0xDC1A, offset: 0xDC1A, size: 0x8, addend: 0x0, symName: __ZNSt3__135__uninitialized_allocator_copy_implB8ue170006INS_9allocatorI3JobEEPS2_S4_S4_EET2_RT_T0_T1_S5_, symObjAddr: 0xB504, symBinAddr: 0x10000EEB8, symSize: 0xFC }
  - { offsetInCU: 0xDCB8, offset: 0xDCB8, size: 0x8, addend: 0x0, symName: __ZNSt3__113__unwrap_iterB8ue170006IP3JobNS_18__unwrap_iter_implIS2_Lb1EEELi0EEEDTclsrT0_8__unwrapclsr3stdE7declvalIT_EEEES6_, symObjAddr: 0xB600, symBinAddr: 0x10000EFB4, symSize: 0x24 }
  - { offsetInCU: 0xDCFC, offset: 0xDCFC, size: 0x8, addend: 0x0, symName: __ZNSt3__113__rewrap_iterB8ue170006IP3JobS2_NS_18__unwrap_iter_implIS2_Lb1EEEEET_S5_T0_, symObjAddr: 0xB624, symBinAddr: 0x10000EFD8, symSize: 0x50 }
  - { offsetInCU: 0xDD51, offset: 0xDD51, size: 0x8, addend: 0x0, symName: __ZNSt3__19make_pairB8ue170006IP3JobS2_EENS_4pairINS_18__unwrap_ref_decayIT_E4typeENS4_IT0_E4typeEEEOS5_OS8_, symObjAddr: 0xB674, symBinAddr: 0x10000F028, symSize: 0x38 }
  - { offsetInCU: 0xDE4D, offset: 0xDE4D, size: 0x8, addend: 0x0, symName: __ZNSt3__122__make_exception_guardB8ue170006INS_29_AllocatorDestroyRangeReverseINS_9allocatorI3JobEEPS3_EEEENS_28__exception_guard_exceptionsIT_EES8_, symObjAddr: 0xB71C, symBinAddr: 0x10000F0D0, symSize: 0x4C }
  - { offsetInCU: 0xDE83, offset: 0xDE83, size: 0x8, addend: 0x0, symName: __ZNSt3__119__allocator_destroyB8ue170006INS_9allocatorI3JobEENS_16reverse_iteratorIPS2_EES6_EEvRT_T0_T1_, symObjAddr: 0xB9A4, symBinAddr: 0x10000F358, symSize: 0x70 }
  - { offsetInCU: 0xE1FC, offset: 0xE1FC, size: 0x8, addend: 0x0, symName: __ZSt28__throw_bad_array_new_lengthB8ue170006v, symObjAddr: 0x557C, symBinAddr: 0x100008F30, symSize: 0x34 }
  - { offsetInCU: 0xE9BB, offset: 0xE9BB, size: 0x8, addend: 0x0, symName: __ZNSt3__16vectorIiNS_9allocatorIiEEE26__swap_out_circular_bufferERNS_14__split_bufferIiRS2_EE, symObjAddr: 0x6F0C, symBinAddr: 0x10000A8C0, symSize: 0x110 }
  - { offsetInCU: 0xEB0A, offset: 0xEB0A, size: 0x8, addend: 0x0, symName: __ZNSt3__16vectorI3JobNS_9allocatorIS1_EEE26__swap_out_circular_bufferERNS_14__split_bufferIS1_RS3_EE, symObjAddr: 0x9F04, symBinAddr: 0x10000D8B8, symSize: 0x110 }
  - { offsetInCU: 0x10EC5, offset: 0x10EC5, size: 0x8, addend: 0x0, symName: __Z10comparison3JobS_, symObjAddr: 0x0, symBinAddr: 0x1000039B4, symSize: 0x98 }
  - { offsetInCU: 0x10EFF, offset: 0x10EFF, size: 0x8, addend: 0x0, symName: __Z18printJobSchedulingNSt3__16vectorI3JobNS_9allocatorIS1_EEEE, symObjAddr: 0x98, symBinAddr: 0x100003A4C, symSize: 0x424 }
  - { offsetInCU: 0x10FEA, offset: 0x10FEA, size: 0x8, addend: 0x0, symName: __ZNKSt3__16vectorI3JobNS_9allocatorIS1_EEE4sizeB8ue170006Ev, symObjAddr: 0x4BC, symBinAddr: 0x100003E70, symSize: 0x28 }
  - { offsetInCU: 0x1100F, offset: 0x1100F, size: 0x8, addend: 0x0, symName: __ZNSt3__16vectorI3JobNS_9allocatorIS1_EEE5beginB8ue170006Ev, symObjAddr: 0x52C, symBinAddr: 0x100003EE0, symSize: 0x30 }
  - { offsetInCU: 0x11035, offset: 0x11035, size: 0x8, addend: 0x0, symName: __ZNSt3__16vectorI3JobNS_9allocatorIS1_EEE3endB8ue170006Ev, symObjAddr: 0x55C, symBinAddr: 0x100003F10, symSize: 0x30 }
  - { offsetInCU: 0x1105B, offset: 0x1105B, size: 0x8, addend: 0x0, symName: __ZNSt3__16vectorI3JobNS_9allocatorIS1_EEEixB8ue170006Em, symObjAddr: 0x58C, symBinAddr: 0x100003F40, symSize: 0x2C }
  - { offsetInCU: 0x11091, offset: 0x11091, size: 0x8, addend: 0x0, symName: __ZNSt3__16vectorIiNS_9allocatorIiEEEC1EmRKi, symObjAddr: 0x5B8, symBinAddr: 0x100003F6C, symSize: 0x3C }
  - { offsetInCU: 0x110DA, offset: 0x110DA, size: 0x8, addend: 0x0, symName: __ZNSt3__16vectorIbNS_9allocatorIbEEEC1EmRKb, symObjAddr: 0x5F4, symBinAddr: 0x100003FA8, symSize: 0x3C }
  - { offsetInCU: 0x11123, offset: 0x11123, size: 0x8, addend: 0x0, symName: __ZNSt3__16vectorIbNS_9allocatorIbEEEixB8ue170006Em, symObjAddr: 0x65C, symBinAddr: 0x100004010, symSize: 0x3C }
  - { offsetInCU: 0x11157, offset: 0x11157, size: 0x8, addend: 0x0, symName: __ZNKSt3__115__bit_referenceINS_6vectorIbNS_9allocatorIbEEEELb1EEcvbB8ue170006Ev, symObjAddr: 0x698, symBinAddr: 0x10000404C, symSize: 0x2C }
  - { offsetInCU: 0x1117C, offset: 0x1117C, size: 0x8, addend: 0x0, symName: __ZNSt3__16vectorIiNS_9allocatorIiEEEixB8ue170006Em, symObjAddr: 0x6C4, symBinAddr: 0x100004078, symSize: 0x24 }
  - { offsetInCU: 0x111B2, offset: 0x111B2, size: 0x8, addend: 0x0, symName: __ZNSt3__115__bit_referenceINS_6vectorIbNS_9allocatorIbEEEELb1EEaSB8ue170006Eb, symObjAddr: 0x6E8, symBinAddr: 0x10000409C, symSize: 0x6C }
  - { offsetInCU: 0x111E5, offset: 0x111E5, size: 0x8, addend: 0x0, symName: __ZNSt3__16vectorIiNS_9allocatorIiEEEC1B8ue170006Ev, symObjAddr: 0x754, symBinAddr: 0x100004108, symSize: 0x2C }
  - { offsetInCU: 0x1120E, offset: 0x1120E, size: 0x8, addend: 0x0, symName: __ZNSt3__16vectorIiNS_9allocatorIiEEE9push_backB8ue170006ERKi, symObjAddr: 0x780, symBinAddr: 0x100004134, symSize: 0x6C }
  - { offsetInCU: 0x11243, offset: 0x11243, size: 0x8, addend: 0x0, symName: __ZNSt3__16vectorIiNS_9allocatorIiEEE5beginB8ue170006Ev, symObjAddr: 0x828, symBinAddr: 0x1000041DC, symSize: 0x30 }
  - { offsetInCU: 0x11269, offset: 0x11269, size: 0x8, addend: 0x0, symName: __ZNSt3__16vectorIiNS_9allocatorIiEEE3endB8ue170006Ev, symObjAddr: 0x858, symBinAddr: 0x10000420C, symSize: 0x30 }
  - { offsetInCU: 0x1128F, offset: 0x1128F, size: 0x8, addend: 0x0, symName: __ZNKSt3__16vectorIiNS_9allocatorIiEEE4sizeB8ue170006Ev, symObjAddr: 0x888, symBinAddr: 0x10000423C, symSize: 0x28 }
  - { offsetInCU: 0x112B4, offset: 0x112B4, size: 0x8, addend: 0x0, symName: __ZNSt3__113basic_ostreamIcNS_11char_traitsIcEEElsB8ue170006EPFRS3_S4_E, symObjAddr: 0x8E4, symBinAddr: 0x100004298, symSize: 0x2C }
  - { offsetInCU: 0x112E7, offset: 0x112E7, size: 0x8, addend: 0x0, symName: __ZNSt3__16vectorIiNS_9allocatorIiEEED1B8ue170006Ev, symObjAddr: 0x968, symBinAddr: 0x10000431C, symSize: 0x2C }
  - { offsetInCU: 0x11310, offset: 0x11310, size: 0x8, addend: 0x0, symName: __ZNSt3__16vectorIbNS_9allocatorIbEEED1B8ue170006Ev, symObjAddr: 0x9A0, symBinAddr: 0x100004354, symSize: 0x2C }
  - { offsetInCU: 0x11339, offset: 0x11339, size: 0x8, addend: 0x0, symName: _main, symObjAddr: 0x9CC, symBinAddr: 0x100004380, symSize: 0x174 }
  - { offsetInCU: 0x113E5, offset: 0x113E5, size: 0x8, addend: 0x0, symName: __ZNSt3__16vectorI3JobNS_9allocatorIS1_EEEC1B8ue170006Ev, symObjAddr: 0xB40, symBinAddr: 0x1000044F4, symSize: 0x2C }
  - { offsetInCU: 0x1140E, offset: 0x1140E, size: 0x8, addend: 0x0, symName: __ZNSt3__16vectorI3JobNS_9allocatorIS1_EEE9push_backB8ue170006ERKS1_, symObjAddr: 0xB6C, symBinAddr: 0x100004520, symSize: 0x6C }
  - { offsetInCU: 0x11443, offset: 0x11443, size: 0x8, addend: 0x0, symName: __ZNSt3__16vectorI3JobNS_9allocatorIS1_EEEC1ERKS4_, symObjAddr: 0xBD8, symBinAddr: 0x10000458C, symSize: 0x34 }
  - { offsetInCU: 0x1147D, offset: 0x1147D, size: 0x8, addend: 0x0, symName: __ZNSt3__16vectorI3JobNS_9allocatorIS1_EEED1B8ue170006Ev, symObjAddr: 0xC0C, symBinAddr: 0x1000045C0, symSize: 0x2C }
  - { offsetInCU: 0x114A6, offset: 0x114A6, size: 0x8, addend: 0x0, symName: __ZNSt3__16vectorI3JobNS_9allocatorIS1_EEE11__make_iterB8ue170006EPS1_, symObjAddr: 0xC38, symBinAddr: 0x1000045EC, symSize: 0x30 }
  - { offsetInCU: 0x114DA, offset: 0x114DA, size: 0x8, addend: 0x0, symName: __ZNSt3__111__wrap_iterIP3JobEC1B8ue170006ES2_, symObjAddr: 0xC68, symBinAddr: 0x10000461C, symSize: 0x34 }
  - { offsetInCU: 0x11511, offset: 0x11511, size: 0x8, addend: 0x0, symName: __ZNSt3__111__wrap_iterIP3JobEC2B8ue170006ES2_, symObjAddr: 0xC9C, symBinAddr: 0x100004650, symSize: 0x20 }
  - { offsetInCU: 0x11548, offset: 0x11548, size: 0x8, addend: 0x0, symName: __ZNSt3__18_IterOpsINS_17_ClassicAlgPolicyEE4nextB8ue170006IP3JobEET_S6_S6_, symObjAddr: 0xF20, symBinAddr: 0x1000048D4, symSize: 0x18 }
  - { offsetInCU: 0x1157F, offset: 0x1157F, size: 0x8, addend: 0x0, symName: __ZNSt3__18_IterOpsINS_17_ClassicAlgPolicyEE9iter_swapB8ue170006IRP3JobS6_EEvOT_OT0_, symObjAddr: 0x11AC, symBinAddr: 0x100004B60, symSize: 0x34 }
  - { offsetInCU: 0x115C7, offset: 0x115C7, size: 0x8, addend: 0x0, symName: __ZNSt3__18_IterOpsINS_17_ClassicAlgPolicyEE11__iter_moveB8ue170006IRP3JobEENS_9enable_ifIXsr12is_referenceIDTdeclsr3stdE7declvalIRT_EEEEE5valueEDTclsr3stdE4movedeclsr3stdE7declvalIS9_EEEEE4typeEOS8_, symObjAddr: 0x16BC, symBinAddr: 0x100005070, symSize: 0x28 }
  - { offsetInCU: 0x115F3, offset: 0x115F3, size: 0x8, addend: 0x0, symName: __ZNSt3__18_IterOpsINS_17_ClassicAlgPolicyEE25__validate_iter_referenceB8ue170006IRP3JobEEvv, symObjAddr: 0x16E4, symBinAddr: 0x100005098, symSize: 0x4 }
  - { offsetInCU: 0x11611, offset: 0x11611, size: 0x8, addend: 0x0, symName: __ZNSt3__118__unwrap_iter_implINS_11__wrap_iterIP3JobEELb1EE8__unwrapB8ue170006ES4_, symObjAddr: 0x1BB4, symBinAddr: 0x100005568, symSize: 0x28 }
  - { offsetInCU: 0x1163E, offset: 0x1163E, size: 0x8, addend: 0x0, symName: __ZNSt3__119__to_address_helperINS_11__wrap_iterIP3JobEEvE6__callB8ue170006ERKS4_, symObjAddr: 0x1C00, symBinAddr: 0x1000055B4, symSize: 0x30 }
  - { offsetInCU: 0x11661, offset: 0x11661, size: 0x8, addend: 0x0, symName: __ZNSt3__114pointer_traitsINS_11__wrap_iterIP3JobEEE10to_addressB8ue170006ES4_, symObjAddr: 0x1C30, symBinAddr: 0x1000055E4, symSize: 0x2C }
  - { offsetInCU: 0x11684, offset: 0x11684, size: 0x8, addend: 0x0, symName: __ZNKSt3__111__wrap_iterIP3JobE4baseB8ue170006Ev, symObjAddr: 0x1C70, symBinAddr: 0x100005624, symSize: 0x18 }
  - { offsetInCU: 0x116AE, offset: 0x116AE, size: 0x8, addend: 0x0, symName: __ZNSt3__18_IterOpsINS_17_ClassicAlgPolicyEE9iter_swapB8ue170006IRP3JobS5_EEvOT_OT0_, symObjAddr: 0x2BB8, symBinAddr: 0x10000656C, symSize: 0x34 }
  - { offsetInCU: 0x116F1, offset: 0x116F1, size: 0x8, addend: 0x0, symName: __ZNSt3__18_IterOpsINS_17_ClassicAlgPolicyEE9iter_swapB8ue170006IP3JobS5_EEvOT_OT0_, symObjAddr: 0x4B7C, symBinAddr: 0x100008530, symSize: 0x34 }
  - { offsetInCU: 0x1174D, offset: 0x1174D, size: 0x8, addend: 0x0, symName: __ZNSt3__14pairIP3JobbEC1B8ue170006ERKS2_RKb, symObjAddr: 0x4BCC, symBinAddr: 0x100008580, symSize: 0x3C }
  - { offsetInCU: 0x11792, offset: 0x11792, size: 0x8, addend: 0x0, symName: __ZNSt3__14pairIP3JobbEC2B8ue170006ERKS2_RKb, symObjAddr: 0x4C08, symBinAddr: 0x1000085BC, symSize: 0x38 }
  - { offsetInCU: 0x117D7, offset: 0x117D7, size: 0x8, addend: 0x0, symName: __ZNSt3__16vectorIiNS_9allocatorIiEEEC2EmRKi, symObjAddr: 0x4C40, symBinAddr: 0x1000085F4, symSize: 0xE4 }
  - { offsetInCU: 0x1183F, offset: 0x1183F, size: 0x8, addend: 0x0, symName: __ZNSt3__117__compressed_pairIPiNS_9allocatorIiEEEC1B8ue170006IDnNS_18__default_init_tagEEEOT_OT0_, symObjAddr: 0x4D24, symBinAddr: 0x1000086D8, symSize: 0x3C }
  - { offsetInCU: 0x11896, offset: 0x11896, size: 0x8, addend: 0x0, symName: __ZNSt3__16vectorIiNS_9allocatorIiEEE16__destroy_vectorC1B8ue170006ERS3_, symObjAddr: 0x4DA0, symBinAddr: 0x100008754, symSize: 0x34 }
  - { offsetInCU: 0x118CE, offset: 0x118CE, size: 0x8, addend: 0x0, symName: __ZNSt3__16vectorIiNS_9allocatorIiEEE11__vallocateB8ue170006Em, symObjAddr: 0x4DD4, symBinAddr: 0x100008788, symSize: 0xAC }
  - { offsetInCU: 0x11911, offset: 0x11911, size: 0x8, addend: 0x0, symName: __ZNSt3__16vectorIiNS_9allocatorIiEEE18__construct_at_endEmRKi, symObjAddr: 0x4E80, symBinAddr: 0x100008834, symSize: 0xD8 }
  - { offsetInCU: 0x11990, offset: 0x11990, size: 0x8, addend: 0x0, symName: __ZNSt3__128__exception_guard_exceptionsINS_6vectorIiNS_9allocatorIiEEE16__destroy_vectorEE10__completeB8ue170006Ev, symObjAddr: 0x4F58, symBinAddr: 0x10000890C, symSize: 0x1C }
  - { offsetInCU: 0x119B5, offset: 0x119B5, size: 0x8, addend: 0x0, symName: __ZNSt3__128__exception_guard_exceptionsINS_6vectorIiNS_9allocatorIiEEE16__destroy_vectorEED1B8ue170006Ev, symObjAddr: 0x4F74, symBinAddr: 0x100008928, symSize: 0x2C }
  - { offsetInCU: 0x119DE, offset: 0x119DE, size: 0x8, addend: 0x0, symName: __ZNSt3__117__compressed_pairIPiNS_9allocatorIiEEEC2B8ue170006IDnNS_18__default_init_tagEEEOT_OT0_, symObjAddr: 0x4FA0, symBinAddr: 0x100008954, symSize: 0x40 }
  - { offsetInCU: 0x11A35, offset: 0x11A35, size: 0x8, addend: 0x0, symName: __ZNSt3__122__compressed_pair_elemIPiLi0ELb0EEC2B8ue170006IDnvEEOT_, symObjAddr: 0x4FE0, symBinAddr: 0x100008994, symSize: 0x1C }
  - { offsetInCU: 0x11A76, offset: 0x11A76, size: 0x8, addend: 0x0, symName: __ZNSt3__122__compressed_pair_elemINS_9allocatorIiEELi1ELb1EEC2B8ue170006ENS_18__default_init_tagE, symObjAddr: 0x4FFC, symBinAddr: 0x1000089B0, symSize: 0x2C }
  - { offsetInCU: 0x11AAA, offset: 0x11AAA, size: 0x8, addend: 0x0, symName: __ZNSt3__19allocatorIiEC2B8ue170006Ev, symObjAddr: 0x5028, symBinAddr: 0x1000089DC, symSize: 0x2C }
  - { offsetInCU: 0x11AD3, offset: 0x11AD3, size: 0x8, addend: 0x0, symName: __ZNSt3__116__non_trivial_ifILb1ENS_9allocatorIiEEEC2B8ue170006Ev, symObjAddr: 0x5054, symBinAddr: 0x100008A08, symSize: 0x14 }
  - { offsetInCU: 0x11AFC, offset: 0x11AFC, size: 0x8, addend: 0x0, symName: __ZNSt3__128__exception_guard_exceptionsINS_6vectorIiNS_9allocatorIiEEE16__destroy_vectorEEC1B8ue170006ES5_, symObjAddr: 0x5068, symBinAddr: 0x100008A1C, symSize: 0x34 }
  - { offsetInCU: 0x11B33, offset: 0x11B33, size: 0x8, addend: 0x0, symName: __ZNSt3__128__exception_guard_exceptionsINS_6vectorIiNS_9allocatorIiEEE16__destroy_vectorEEC2B8ue170006ES5_, symObjAddr: 0x509C, symBinAddr: 0x100008A50, symSize: 0x24 }
  - { offsetInCU: 0x11B6A, offset: 0x11B6A, size: 0x8, addend: 0x0, symName: __ZNSt3__16vectorIiNS_9allocatorIiEEE16__destroy_vectorC2B8ue170006ERS3_, symObjAddr: 0x50C0, symBinAddr: 0x100008A74, symSize: 0x20 }
  - { offsetInCU: 0x11BA2, offset: 0x11BA2, size: 0x8, addend: 0x0, symName: __ZNKSt3__16vectorIiNS_9allocatorIiEEE8max_sizeEv, symObjAddr: 0x50E0, symBinAddr: 0x100008A94, symSize: 0x74 }
  - { offsetInCU: 0x11BC8, offset: 0x11BC8, size: 0x8, addend: 0x0, symName: __ZNKSt3__16vectorIiNS_9allocatorIiEEE20__throw_length_errorB8ue170006Ev, symObjAddr: 0x5154, symBinAddr: 0x100008B08, symSize: 0x1C }
  - { offsetInCU: 0x11BED, offset: 0x11BED, size: 0x8, addend: 0x0, symName: __ZNSt3__16vectorIiNS_9allocatorIiEEE7__allocB8ue170006Ev, symObjAddr: 0x51B0, symBinAddr: 0x100008B64, symSize: 0x28 }
  - { offsetInCU: 0x11C12, offset: 0x11C12, size: 0x8, addend: 0x0, symName: __ZNSt3__16vectorIiNS_9allocatorIiEEE9__end_capB8ue170006Ev, symObjAddr: 0x51D8, symBinAddr: 0x100008B8C, symSize: 0x28 }
  - { offsetInCU: 0x11C37, offset: 0x11C37, size: 0x8, addend: 0x0, symName: __ZNKSt3__16vectorIiNS_9allocatorIiEEE14__annotate_newB8ue170006Em, symObjAddr: 0x5200, symBinAddr: 0x100008BB4, symSize: 0xAC }
  - { offsetInCU: 0x11C75, offset: 0x11C75, size: 0x8, addend: 0x0, symName: __ZNSt3__116allocator_traitsINS_9allocatorIiEEE8max_sizeB8ue170006IS2_vEEmRKS2_, symObjAddr: 0x52D8, symBinAddr: 0x100008C8C, symSize: 0x24 }
  - { offsetInCU: 0x11CA3, offset: 0x11CA3, size: 0x8, addend: 0x0, symName: __ZNKSt3__16vectorIiNS_9allocatorIiEEE7__allocB8ue170006Ev, symObjAddr: 0x52FC, symBinAddr: 0x100008CB0, symSize: 0x28 }
  - { offsetInCU: 0x11CC8, offset: 0x11CC8, size: 0x8, addend: 0x0, symName: __ZNSt3__114numeric_limitsIlE3maxB8ue170006Ev, symObjAddr: 0x5324, symBinAddr: 0x100008CD8, symSize: 0x14 }
  - { offsetInCU: 0x11CE6, offset: 0x11CE6, size: 0x8, addend: 0x0, symName: __ZNKSt3__16__lessIvvEclB8ue170006ImmEEbRKT_RKT0_, symObjAddr: 0x538C, symBinAddr: 0x100008D40, symSize: 0x34 }
  - { offsetInCU: 0x11D39, offset: 0x11D39, size: 0x8, addend: 0x0, symName: __ZNKSt3__19allocatorIiE8max_sizeB8ue170006Ev, symObjAddr: 0x53C0, symBinAddr: 0x100008D74, symSize: 0x14 }
  - { offsetInCU: 0x11D5E, offset: 0x11D5E, size: 0x8, addend: 0x0, symName: __ZNKSt3__117__compressed_pairIPiNS_9allocatorIiEEE6secondB8ue170006Ev, symObjAddr: 0x53D4, symBinAddr: 0x100008D88, symSize: 0x24 }
  - { offsetInCU: 0x11D83, offset: 0x11D83, size: 0x8, addend: 0x0, symName: __ZNKSt3__122__compressed_pair_elemINS_9allocatorIiEELi1ELb1EE5__getB8ue170006Ev, symObjAddr: 0x53F8, symBinAddr: 0x100008DAC, symSize: 0x14 }
  - { offsetInCU: 0x11DA8, offset: 0x11DA8, size: 0x8, addend: 0x0, symName: __ZNSt3__123__libcpp_numeric_limitsIlLb1EE3maxB8ue170006Ev, symObjAddr: 0x540C, symBinAddr: 0x100008DC0, symSize: 0x8 }
  - { offsetInCU: 0x11DBC, offset: 0x11DBC, size: 0x8, addend: 0x0, symName: __ZNSt12length_errorC1B8ue170006EPKc, symObjAddr: 0x5478, symBinAddr: 0x100008E2C, symSize: 0x34 }
  - { offsetInCU: 0x11DF3, offset: 0x11DF3, size: 0x8, addend: 0x0, symName: __ZNSt12length_errorC2B8ue170006EPKc, symObjAddr: 0x54AC, symBinAddr: 0x100008E60, symSize: 0x4C }
  - { offsetInCU: 0x11E2A, offset: 0x11E2A, size: 0x8, addend: 0x0, symName: __ZNSt3__19allocatorIiE8allocateB8ue170006Em, symObjAddr: 0x54F8, symBinAddr: 0x100008EAC, symSize: 0x84 }
  - { offsetInCU: 0x11E5D, offset: 0x11E5D, size: 0x8, addend: 0x0, symName: __ZNSt3__117__compressed_pairIPiNS_9allocatorIiEEE6secondB8ue170006Ev, symObjAddr: 0x55FC, symBinAddr: 0x100008FB0, symSize: 0x24 }
  - { offsetInCU: 0x11E82, offset: 0x11E82, size: 0x8, addend: 0x0, symName: __ZNSt3__122__compressed_pair_elemINS_9allocatorIiEELi1ELb1EE5__getB8ue170006Ev, symObjAddr: 0x5620, symBinAddr: 0x100008FD4, symSize: 0x14 }
  - { offsetInCU: 0x11EA7, offset: 0x11EA7, size: 0x8, addend: 0x0, symName: __ZNSt3__117__compressed_pairIPiNS_9allocatorIiEEE5firstB8ue170006Ev, symObjAddr: 0x5634, symBinAddr: 0x100008FE8, symSize: 0x24 }
  - { offsetInCU: 0x11ECC, offset: 0x11ECC, size: 0x8, addend: 0x0, symName: __ZNSt3__122__compressed_pair_elemIPiLi0ELb0EE5__getB8ue170006Ev, symObjAddr: 0x5658, symBinAddr: 0x10000900C, symSize: 0x14 }
  - { offsetInCU: 0x11EF1, offset: 0x11EF1, size: 0x8, addend: 0x0, symName: __ZNKSt3__16vectorIiNS_9allocatorIiEEE31__annotate_contiguous_containerB8ue170006EPKvS5_S5_S5_, symObjAddr: 0x566C, symBinAddr: 0x100009020, symSize: 0x20 }
  - { offsetInCU: 0x11F42, offset: 0x11F42, size: 0x8, addend: 0x0, symName: __ZNKSt3__16vectorIiNS_9allocatorIiEEE4dataB8ue170006Ev, symObjAddr: 0x568C, symBinAddr: 0x100009040, symSize: 0x28 }
  - { offsetInCU: 0x11F67, offset: 0x11F67, size: 0x8, addend: 0x0, symName: __ZNKSt3__16vectorIiNS_9allocatorIiEEE8capacityB8ue170006Ev, symObjAddr: 0x56B4, symBinAddr: 0x100009068, symSize: 0x40 }
  - { offsetInCU: 0x11F8C, offset: 0x11F8C, size: 0x8, addend: 0x0, symName: __ZNKSt3__16vectorIiNS_9allocatorIiEEE9__end_capB8ue170006Ev, symObjAddr: 0x5708, symBinAddr: 0x1000090BC, symSize: 0x28 }
  - { offsetInCU: 0x11FB1, offset: 0x11FB1, size: 0x8, addend: 0x0, symName: __ZNKSt3__117__compressed_pairIPiNS_9allocatorIiEEE5firstB8ue170006Ev, symObjAddr: 0x5730, symBinAddr: 0x1000090E4, symSize: 0x24 }
  - { offsetInCU: 0x11FD6, offset: 0x11FD6, size: 0x8, addend: 0x0, symName: __ZNKSt3__122__compressed_pair_elemIPiLi0ELb0EE5__getB8ue170006Ev, symObjAddr: 0x5754, symBinAddr: 0x100009108, symSize: 0x14 }
  - { offsetInCU: 0x12014, offset: 0x12014, size: 0x8, addend: 0x0, symName: __ZNSt3__16vectorIiNS_9allocatorIiEEE21_ConstructTransactionC1B8ue170006ERS3_m, symObjAddr: 0x5768, symBinAddr: 0x10000911C, symSize: 0x3C }
  - { offsetInCU: 0x1205B, offset: 0x1205B, size: 0x8, addend: 0x0, symName: __ZNSt3__116allocator_traitsINS_9allocatorIiEEE9constructB8ue170006IiJRKiEvEEvRS2_PT_DpOT0_, symObjAddr: 0x57A4, symBinAddr: 0x100009158, symSize: 0x34 }
  - { offsetInCU: 0x120B2, offset: 0x120B2, size: 0x8, addend: 0x0, symName: __ZNSt3__16vectorIiNS_9allocatorIiEEE21_ConstructTransactionD1B8ue170006Ev, symObjAddr: 0x57D8, symBinAddr: 0x10000918C, symSize: 0x2C }
  - { offsetInCU: 0x120DB, offset: 0x120DB, size: 0x8, addend: 0x0, symName: __ZNSt3__16vectorIiNS_9allocatorIiEEE21_ConstructTransactionC2B8ue170006ERS3_m, symObjAddr: 0x5804, symBinAddr: 0x1000091B8, symSize: 0x44 }
  - { offsetInCU: 0x12122, offset: 0x12122, size: 0x8, addend: 0x0, symName: __ZNSt3__19allocatorIiE9constructB8ue170006IiJRKiEEEvPT_DpOT0_, symObjAddr: 0x5848, symBinAddr: 0x1000091FC, symSize: 0x28 }
  - { offsetInCU: 0x12177, offset: 0x12177, size: 0x8, addend: 0x0, symName: __ZNSt3__16vectorIiNS_9allocatorIiEEE21_ConstructTransactionD2B8ue170006Ev, symObjAddr: 0x5870, symBinAddr: 0x100009224, symSize: 0x20 }
  - { offsetInCU: 0x121A0, offset: 0x121A0, size: 0x8, addend: 0x0, symName: __ZNSt3__128__exception_guard_exceptionsINS_6vectorIiNS_9allocatorIiEEE16__destroy_vectorEED2B8ue170006Ev, symObjAddr: 0x5890, symBinAddr: 0x100009244, symSize: 0x48 }
  - { offsetInCU: 0x121C9, offset: 0x121C9, size: 0x8, addend: 0x0, symName: __ZNSt3__16vectorIiNS_9allocatorIiEEE16__destroy_vectorclB8ue170006Ev, symObjAddr: 0x58D8, symBinAddr: 0x10000928C, symSize: 0x90 }
  - { offsetInCU: 0x121EE, offset: 0x121EE, size: 0x8, addend: 0x0, symName: __ZNSt3__16vectorIiNS_9allocatorIiEEE7__clearB8ue170006Ev, symObjAddr: 0x5968, symBinAddr: 0x10000931C, symSize: 0x28 }
  - { offsetInCU: 0x12213, offset: 0x12213, size: 0x8, addend: 0x0, symName: __ZNKSt3__16vectorIiNS_9allocatorIiEEE17__annotate_deleteB8ue170006Ev, symObjAddr: 0x5990, symBinAddr: 0x100009344, symSize: 0xB8 }
  - { offsetInCU: 0x12238, offset: 0x12238, size: 0x8, addend: 0x0, symName: __ZNSt3__116allocator_traitsINS_9allocatorIiEEE10deallocateB8ue170006ERS2_Pim, symObjAddr: 0x5A48, symBinAddr: 0x1000093FC, symSize: 0x34 }
  - { offsetInCU: 0x1227A, offset: 0x1227A, size: 0x8, addend: 0x0, symName: __ZNSt3__16vectorIiNS_9allocatorIiEEE22__base_destruct_at_endB8ue170006EPi, symObjAddr: 0x5A7C, symBinAddr: 0x100009430, symSize: 0xA0 }
  - { offsetInCU: 0x122BD, offset: 0x122BD, size: 0x8, addend: 0x0, symName: __ZNSt3__116allocator_traitsINS_9allocatorIiEEE7destroyB8ue170006IivEEvRS2_PT_, symObjAddr: 0x5B1C, symBinAddr: 0x1000094D0, symSize: 0x2C }
  - { offsetInCU: 0x122FA, offset: 0x122FA, size: 0x8, addend: 0x0, symName: __ZNSt3__19allocatorIiE7destroyB8ue170006EPi, symObjAddr: 0x5B48, symBinAddr: 0x1000094FC, symSize: 0x14 }
  - { offsetInCU: 0x1232D, offset: 0x1232D, size: 0x8, addend: 0x0, symName: __ZNSt3__19allocatorIiE10deallocateB8ue170006EPim, symObjAddr: 0x5B5C, symBinAddr: 0x100009510, symSize: 0x70 }
  - { offsetInCU: 0x1236E, offset: 0x1236E, size: 0x8, addend: 0x0, symName: __ZNSt3__16vectorIiNS_9allocatorIiEEED2B8ue170006Ev, symObjAddr: 0x5C48, symBinAddr: 0x1000095FC, symSize: 0x3C }
  - { offsetInCU: 0x12397, offset: 0x12397, size: 0x8, addend: 0x0, symName: __ZNSt3__16vectorIbNS_9allocatorIbEEEC2EmRKb, symObjAddr: 0x5C84, symBinAddr: 0x100009638, symSize: 0x90 }
  - { offsetInCU: 0x123E5, offset: 0x123E5, size: 0x8, addend: 0x0, symName: __ZNSt3__117__compressed_pairImNS_9allocatorImEEEC1B8ue170006IiNS_18__default_init_tagEEEOT_OT0_, symObjAddr: 0x5D14, symBinAddr: 0x1000096C8, symSize: 0x3C }
  - { offsetInCU: 0x1243C, offset: 0x1243C, size: 0x8, addend: 0x0, symName: __ZNSt3__16vectorIbNS_9allocatorIbEEE11__vallocateB8ue170006Em, symObjAddr: 0x5D50, symBinAddr: 0x100009704, symSize: 0x10C }
  - { offsetInCU: 0x1249C, offset: 0x1249C, size: 0x8, addend: 0x0, symName: __ZNSt3__16vectorIbNS_9allocatorIbEEE18__construct_at_endB8ue170006Emb, symObjAddr: 0x5E5C, symBinAddr: 0x100009810, symSize: 0x108 }
  - { offsetInCU: 0x124EF, offset: 0x124EF, size: 0x8, addend: 0x0, symName: __ZNSt3__117__compressed_pairImNS_9allocatorImEEEC2B8ue170006IiNS_18__default_init_tagEEEOT_OT0_, symObjAddr: 0x5F64, symBinAddr: 0x100009918, symSize: 0x40 }
  - { offsetInCU: 0x12546, offset: 0x12546, size: 0x8, addend: 0x0, symName: __ZNSt3__122__compressed_pair_elemImLi0ELb0EEC2B8ue170006IivEEOT_, symObjAddr: 0x5FA4, symBinAddr: 0x100009958, symSize: 0x24 }
  - { offsetInCU: 0x12587, offset: 0x12587, size: 0x8, addend: 0x0, symName: __ZNSt3__122__compressed_pair_elemINS_9allocatorImEELi1ELb1EEC2B8ue170006ENS_18__default_init_tagE, symObjAddr: 0x5FC8, symBinAddr: 0x10000997C, symSize: 0x2C }
  - { offsetInCU: 0x125BB, offset: 0x125BB, size: 0x8, addend: 0x0, symName: __ZNSt3__19allocatorImEC2B8ue170006Ev, symObjAddr: 0x5FF4, symBinAddr: 0x1000099A8, symSize: 0x2C }
  - { offsetInCU: 0x125E4, offset: 0x125E4, size: 0x8, addend: 0x0, symName: __ZNSt3__116__non_trivial_ifILb1ENS_9allocatorImEEEC2B8ue170006Ev, symObjAddr: 0x6020, symBinAddr: 0x1000099D4, symSize: 0x14 }
  - { offsetInCU: 0x1260D, offset: 0x1260D, size: 0x8, addend: 0x0, symName: __ZNKSt3__16vectorIbNS_9allocatorIbEEE8max_sizeEv, symObjAddr: 0x6034, symBinAddr: 0x1000099E8, symSize: 0x7C }
  - { offsetInCU: 0x12651, offset: 0x12651, size: 0x8, addend: 0x0, symName: __ZNKSt3__16vectorIbNS_9allocatorIbEEE20__throw_length_errorB8ue170006Ev, symObjAddr: 0x60B0, symBinAddr: 0x100009A64, symSize: 0x1C }
  - { offsetInCU: 0x12676, offset: 0x12676, size: 0x8, addend: 0x0, symName: __ZNSt3__16vectorIbNS_9allocatorIbEEE7__allocB8ue170006Ev, symObjAddr: 0x610C, symBinAddr: 0x100009AC0, symSize: 0x28 }
  - { offsetInCU: 0x1269B, offset: 0x1269B, size: 0x8, addend: 0x0, symName: __ZNSt3__16vectorIbNS_9allocatorIbEEE26__external_cap_to_internalB8ue170006Em, symObjAddr: 0x6134, symBinAddr: 0x100009AE8, symSize: 0x24 }
  - { offsetInCU: 0x126BF, offset: 0x126BF, size: 0x8, addend: 0x0, symName: __ZNSt3__16vectorIbNS_9allocatorIbEEE5__capB8ue170006Ev, symObjAddr: 0x6158, symBinAddr: 0x100009B0C, symSize: 0x28 }
  - { offsetInCU: 0x126EE, offset: 0x126EE, size: 0x8, addend: 0x0, symName: __ZNSt3__116allocator_traitsINS_9allocatorImEEE8max_sizeB8ue170006IS2_vEEmRKS2_, symObjAddr: 0x61B4, symBinAddr: 0x100009B68, symSize: 0x24 }
  - { offsetInCU: 0x1271C, offset: 0x1271C, size: 0x8, addend: 0x0, symName: __ZNKSt3__16vectorIbNS_9allocatorIbEEE7__allocB8ue170006Ev, symObjAddr: 0x61D8, symBinAddr: 0x100009B8C, symSize: 0x28 }
  - { offsetInCU: 0x12741, offset: 0x12741, size: 0x8, addend: 0x0, symName: __ZNSt3__114numeric_limitsImE3maxB8ue170006Ev, symObjAddr: 0x6200, symBinAddr: 0x100009BB4, symSize: 0x14 }
  - { offsetInCU: 0x12755, offset: 0x12755, size: 0x8, addend: 0x0, symName: __ZNSt3__16vectorIbNS_9allocatorIbEEE26__internal_cap_to_externalB8ue170006Em, symObjAddr: 0x6214, symBinAddr: 0x100009BC8, symSize: 0x18 }
  - { offsetInCU: 0x12779, offset: 0x12779, size: 0x8, addend: 0x0, symName: __ZNKSt3__19allocatorImE8max_sizeB8ue170006Ev, symObjAddr: 0x622C, symBinAddr: 0x100009BE0, symSize: 0x14 }
  - { offsetInCU: 0x1279E, offset: 0x1279E, size: 0x8, addend: 0x0, symName: __ZNKSt3__117__compressed_pairImNS_9allocatorImEEE6secondB8ue170006Ev, symObjAddr: 0x6240, symBinAddr: 0x100009BF4, symSize: 0x24 }
  - { offsetInCU: 0x127C3, offset: 0x127C3, size: 0x8, addend: 0x0, symName: __ZNKSt3__122__compressed_pair_elemINS_9allocatorImEELi1ELb1EE5__getB8ue170006Ev, symObjAddr: 0x6264, symBinAddr: 0x100009C18, symSize: 0x14 }
  - { offsetInCU: 0x127E8, offset: 0x127E8, size: 0x8, addend: 0x0, symName: __ZNSt3__123__libcpp_numeric_limitsImLb1EE3maxB8ue170006Ev, symObjAddr: 0x6278, symBinAddr: 0x100009C2C, symSize: 0x8 }
  - { offsetInCU: 0x127FC, offset: 0x127FC, size: 0x8, addend: 0x0, symName: __ZNSt3__19allocatorImE8allocateB8ue170006Em, symObjAddr: 0x6280, symBinAddr: 0x100009C34, symSize: 0x84 }
  - { offsetInCU: 0x1282F, offset: 0x1282F, size: 0x8, addend: 0x0, symName: __ZNSt3__117__compressed_pairImNS_9allocatorImEEE6secondB8ue170006Ev, symObjAddr: 0x6304, symBinAddr: 0x100009CB8, symSize: 0x24 }
  - { offsetInCU: 0x12854, offset: 0x12854, size: 0x8, addend: 0x0, symName: __ZNSt3__122__compressed_pair_elemINS_9allocatorImEELi1ELb1EE5__getB8ue170006Ev, symObjAddr: 0x6328, symBinAddr: 0x100009CDC, symSize: 0x14 }
  - { offsetInCU: 0x12879, offset: 0x12879, size: 0x8, addend: 0x0, symName: __ZNSt3__117__compressed_pairImNS_9allocatorImEEE5firstB8ue170006Ev, symObjAddr: 0x633C, symBinAddr: 0x100009CF0, symSize: 0x24 }
  - { offsetInCU: 0x1289E, offset: 0x1289E, size: 0x8, addend: 0x0, symName: __ZNSt3__122__compressed_pair_elemImLi0ELb0EE5__getB8ue170006Ev, symObjAddr: 0x6360, symBinAddr: 0x100009D14, symSize: 0x14 }
  - { offsetInCU: 0x128C3, offset: 0x128C3, size: 0x8, addend: 0x0, symName: __ZNSt3__16vectorIbNS_9allocatorIbEEE11__make_iterB8ue170006Em, symObjAddr: 0x6408, symBinAddr: 0x100009DBC, symSize: 0x64 }
  - { offsetInCU: 0x128F7, offset: 0x128F7, size: 0x8, addend: 0x0, symName: __ZNSt3__114__bit_iteratorINS_6vectorIbNS_9allocatorIbEEEELb0ELm0EEC1B8ue170006ERKS5_, symObjAddr: 0x65CC, symBinAddr: 0x100009F80, symSize: 0x34 }
  - { offsetInCU: 0x1292F, offset: 0x1292F, size: 0x8, addend: 0x0, symName: __ZNSt3__114__bit_iteratorINS_6vectorIbNS_9allocatorIbEEEELb0ELm0EEC2B8ue170006ERKS5_, symObjAddr: 0x6818, symBinAddr: 0x10000A1CC, symSize: 0x30 }
  - { offsetInCU: 0x12967, offset: 0x12967, size: 0x8, addend: 0x0, symName: __ZNSt3__114__bit_iteratorINS_6vectorIbNS_9allocatorIbEEEELb0ELm0EEC1B8ue170006EPmj, symObjAddr: 0x68F0, symBinAddr: 0x10000A2A4, symSize: 0x3C }
  - { offsetInCU: 0x129AE, offset: 0x129AE, size: 0x8, addend: 0x0, symName: __ZNSt3__114__bit_iteratorINS_6vectorIbNS_9allocatorIbEEEELb0ELm0EEC2B8ue170006EPmj, symObjAddr: 0x692C, symBinAddr: 0x10000A2E0, symSize: 0x2C }
  - { offsetInCU: 0x129F5, offset: 0x129F5, size: 0x8, addend: 0x0, symName: __ZNSt3__16vectorIbNS_9allocatorIbEEED2B8ue170006Ev, symObjAddr: 0x6958, symBinAddr: 0x10000A30C, symSize: 0x3C }
  - { offsetInCU: 0x12A1E, offset: 0x12A1E, size: 0x8, addend: 0x0, symName: __ZNSt3__16vectorIbNS_9allocatorIbEEE16__destroy_vectorC1B8ue170006ERS3_, symObjAddr: 0x6994, symBinAddr: 0x10000A348, symSize: 0x34 }
  - { offsetInCU: 0x12A56, offset: 0x12A56, size: 0x8, addend: 0x0, symName: __ZNSt3__16vectorIbNS_9allocatorIbEEE16__destroy_vectorclB8ue170006Ev, symObjAddr: 0x69C8, symBinAddr: 0x10000A37C, symSize: 0x7C }
  - { offsetInCU: 0x12A7B, offset: 0x12A7B, size: 0x8, addend: 0x0, symName: __ZNSt3__16vectorIbNS_9allocatorIbEEE16__destroy_vectorC2B8ue170006ERS3_, symObjAddr: 0x6A44, symBinAddr: 0x10000A3F8, symSize: 0x20 }
  - { offsetInCU: 0x12AB3, offset: 0x12AB3, size: 0x8, addend: 0x0, symName: __ZNSt3__116allocator_traitsINS_9allocatorImEEE10deallocateB8ue170006ERS2_Pmm, symObjAddr: 0x6A64, symBinAddr: 0x10000A418, symSize: 0x34 }
  - { offsetInCU: 0x12AF5, offset: 0x12AF5, size: 0x8, addend: 0x0, symName: __ZNSt3__19allocatorImE10deallocateB8ue170006EPmm, symObjAddr: 0x6A98, symBinAddr: 0x10000A44C, symSize: 0x70 }
  - { offsetInCU: 0x12B36, offset: 0x12B36, size: 0x8, addend: 0x0, symName: __ZNKSt3__16__lessIvvEclB8ue170006IiiEEbRKT_RKT0_, symObjAddr: 0x6B5C, symBinAddr: 0x10000A510, symSize: 0x34 }
  - { offsetInCU: 0x12B89, offset: 0x12B89, size: 0x8, addend: 0x0, symName: __ZNSt3__16vectorIbNS_9allocatorIbEEE10__make_refB8ue170006Em, symObjAddr: 0x6B90, symBinAddr: 0x10000A544, symSize: 0x60 }
  - { offsetInCU: 0x12BBD, offset: 0x12BBD, size: 0x8, addend: 0x0, symName: __ZNSt3__115__bit_referenceINS_6vectorIbNS_9allocatorIbEEEELb1EEC1B8ue170006EPmm, symObjAddr: 0x6BF0, symBinAddr: 0x10000A5A4, symSize: 0x3C }
  - { offsetInCU: 0x12C02, offset: 0x12C02, size: 0x8, addend: 0x0, symName: __ZNSt3__115__bit_referenceINS_6vectorIbNS_9allocatorIbEEEELb1EEC2B8ue170006EPmm, symObjAddr: 0x6C2C, symBinAddr: 0x10000A5E0, symSize: 0x2C }
  - { offsetInCU: 0x12C47, offset: 0x12C47, size: 0x8, addend: 0x0, symName: __ZNSt3__16vectorIiNS_9allocatorIiEEEC2B8ue170006Ev, symObjAddr: 0x6C58, symBinAddr: 0x10000A60C, symSize: 0x44 }
  - { offsetInCU: 0x12C70, offset: 0x12C70, size: 0x8, addend: 0x0, symName: __ZNSt3__16vectorIiNS_9allocatorIiEEE22__construct_one_at_endB8ue170006IJRKiEEEvDpOT_, symObjAddr: 0x6C9C, symBinAddr: 0x10000A650, symSize: 0x98 }
  - { offsetInCU: 0x12CBE, offset: 0x12CBE, size: 0x8, addend: 0x0, symName: __ZNSt3__16vectorIiNS_9allocatorIiEEE21__push_back_slow_pathIRKiEEvOT_, symObjAddr: 0x6D34, symBinAddr: 0x10000A6E8, symSize: 0xE0 }
  - { offsetInCU: 0x12D1A, offset: 0x12D1A, size: 0x8, addend: 0x0, symName: __ZNKSt3__16vectorIiNS_9allocatorIiEEE11__recommendB8ue170006Em, symObjAddr: 0x6E14, symBinAddr: 0x10000A7C8, symSize: 0xB4 }
  - { offsetInCU: 0x12D6D, offset: 0x12D6D, size: 0x8, addend: 0x0, symName: __ZNSt3__114__split_bufferIiRNS_9allocatorIiEEEC1EmmS3_, symObjAddr: 0x6EC8, symBinAddr: 0x10000A87C, symSize: 0x44 }
  - { offsetInCU: 0x12DC2, offset: 0x12DC2, size: 0x8, addend: 0x0, symName: __ZNSt3__114__split_bufferIiRNS_9allocatorIiEEED1Ev, symObjAddr: 0x701C, symBinAddr: 0x10000A9D0, symSize: 0x2C }
  - { offsetInCU: 0x12DED, offset: 0x12DED, size: 0x8, addend: 0x0, symName: __ZNSt3__114__split_bufferIiRNS_9allocatorIiEEEC2EmmS3_, symObjAddr: 0x70C8, symBinAddr: 0x10000AA7C, symSize: 0xD4 }
  - { offsetInCU: 0x12E5F, offset: 0x12E5F, size: 0x8, addend: 0x0, symName: __ZNSt3__117__compressed_pairIPiRNS_9allocatorIiEEEC1B8ue170006IDnS4_EEOT_OT0_, symObjAddr: 0x719C, symBinAddr: 0x10000AB50, symSize: 0x3C }
  - { offsetInCU: 0x12EB6, offset: 0x12EB6, size: 0x8, addend: 0x0, symName: __ZNSt3__114__split_bufferIiRNS_9allocatorIiEEE7__allocB8ue170006Ev, symObjAddr: 0x71D8, symBinAddr: 0x10000AB8C, symSize: 0x28 }
  - { offsetInCU: 0x12EDB, offset: 0x12EDB, size: 0x8, addend: 0x0, symName: __ZNSt3__114__split_bufferIiRNS_9allocatorIiEEE9__end_capB8ue170006Ev, symObjAddr: 0x7200, symBinAddr: 0x10000ABB4, symSize: 0x28 }
  - { offsetInCU: 0x12F00, offset: 0x12F00, size: 0x8, addend: 0x0, symName: __ZNSt3__117__compressed_pairIPiRNS_9allocatorIiEEEC2B8ue170006IDnS4_EEOT_OT0_, symObjAddr: 0x7228, symBinAddr: 0x10000ABDC, symSize: 0x48 }
  - { offsetInCU: 0x12F57, offset: 0x12F57, size: 0x8, addend: 0x0, symName: __ZNSt3__122__compressed_pair_elemIRNS_9allocatorIiEELi1ELb0EEC2B8ue170006IS3_vEEOT_, symObjAddr: 0x7270, symBinAddr: 0x10000AC24, symSize: 0x20 }
  - { offsetInCU: 0x12F98, offset: 0x12F98, size: 0x8, addend: 0x0, symName: __ZNSt3__117__compressed_pairIPiRNS_9allocatorIiEEE6secondB8ue170006Ev, symObjAddr: 0x7290, symBinAddr: 0x10000AC44, symSize: 0x28 }
  - { offsetInCU: 0x12FBD, offset: 0x12FBD, size: 0x8, addend: 0x0, symName: __ZNSt3__122__compressed_pair_elemIRNS_9allocatorIiEELi1ELb0EE5__getB8ue170006Ev, symObjAddr: 0x72B8, symBinAddr: 0x10000AC6C, symSize: 0x18 }
  - { offsetInCU: 0x12FE2, offset: 0x12FE2, size: 0x8, addend: 0x0, symName: __ZNSt3__117__compressed_pairIPiRNS_9allocatorIiEEE5firstB8ue170006Ev, symObjAddr: 0x72D0, symBinAddr: 0x10000AC84, symSize: 0x24 }
  - { offsetInCU: 0x13007, offset: 0x13007, size: 0x8, addend: 0x0, symName: __ZNSt3__116reverse_iteratorIPiEC1B8ue170006ES1_, symObjAddr: 0x73DC, symBinAddr: 0x10000AD90, symSize: 0x34 }
  - { offsetInCU: 0x1303E, offset: 0x1303E, size: 0x8, addend: 0x0, symName: __ZNKSt3__116reverse_iteratorIPiE4baseB8ue170006Ev, symObjAddr: 0x7410, symBinAddr: 0x10000ADC4, symSize: 0x18 }
  - { offsetInCU: 0x13063, offset: 0x13063, size: 0x8, addend: 0x0, symName: __ZNKSt3__116reverse_iteratorIPiEdeB8ue170006Ev, symObjAddr: 0x74FC, symBinAddr: 0x10000AEB0, symSize: 0x28 }
  - { offsetInCU: 0x13096, offset: 0x13096, size: 0x8, addend: 0x0, symName: __ZNSt3__116reverse_iteratorIPiEppB8ue170006Ev, symObjAddr: 0x7524, symBinAddr: 0x10000AED8, symSize: 0x20 }
  - { offsetInCU: 0x130C0, offset: 0x130C0, size: 0x8, addend: 0x0, symName: __ZNSt3__119__to_address_helperINS_16reverse_iteratorIPiEEvE6__callB8ue170006ERKS3_, symObjAddr: 0x75BC, symBinAddr: 0x10000AF70, symSize: 0x4C }
  - { offsetInCU: 0x130E3, offset: 0x130E3, size: 0x8, addend: 0x0, symName: __ZNKSt3__116reverse_iteratorIPiEptB8ue170006Ev, symObjAddr: 0x7608, symBinAddr: 0x10000AFBC, symSize: 0x24 }
  - { offsetInCU: 0x1312B, offset: 0x1312B, size: 0x8, addend: 0x0, symName: __ZNKSt3__111__move_loopINS_17_ClassicAlgPolicyEEclB8ue170006INS_16reverse_iteratorIPiEES6_S6_EENS_4pairIT_T1_EES8_T0_S9_, symObjAddr: 0x78A4, symBinAddr: 0x10000B258, symSize: 0xA0 }
  - { offsetInCU: 0x13195, offset: 0x13195, size: 0x8, addend: 0x0, symName: __ZNSt3__18_IterOpsINS_17_ClassicAlgPolicyEE11__iter_moveB8ue170006IRNS_16reverse_iteratorIPiEEEENS_9enable_ifIXsr12is_referenceIDTdeclsr3stdE7declvalIRT_EEEEE5valueEDTclsr3stdE4movedeclsr3stdE7declvalISA_EEEEE4typeEOS9_, symObjAddr: 0x7AA4, symBinAddr: 0x10000B458, symSize: 0x28 }
  - { offsetInCU: 0x131C1, offset: 0x131C1, size: 0x8, addend: 0x0, symName: __ZNSt3__18_IterOpsINS_17_ClassicAlgPolicyEE25__validate_iter_referenceB8ue170006IRNS_16reverse_iteratorIPiEEEEvv, symObjAddr: 0x7ACC, symBinAddr: 0x10000B480, symSize: 0x4 }
  - { offsetInCU: 0x131DF, offset: 0x131DF, size: 0x8, addend: 0x0, symName: __ZNSt3__118__unwrap_iter_implINS_16reverse_iteratorIPiEELb0EE8__unwrapB8ue170006ES3_, symObjAddr: 0x7AD0, symBinAddr: 0x10000B484, symSize: 0x24 }
  - { offsetInCU: 0x13202, offset: 0x13202, size: 0x8, addend: 0x0, symName: __ZNSt3__14pairINS_16reverse_iteratorIPiEES3_EC1B8ue170006ERKS3_S6_, symObjAddr: 0x7AF4, symBinAddr: 0x10000B4A8, symSize: 0x3C }
  - { offsetInCU: 0x13247, offset: 0x13247, size: 0x8, addend: 0x0, symName: __ZNSt3__14pairINS_16reverse_iteratorIPiEES3_EC2B8ue170006ERKS3_S6_, symObjAddr: 0x7B30, symBinAddr: 0x10000B4E4, symSize: 0x34 }
  - { offsetInCU: 0x1328C, offset: 0x1328C, size: 0x8, addend: 0x0, symName: __ZNSt3__118__unwrap_iter_implINS_16reverse_iteratorIPiEELb0EE8__rewrapB8ue170006ES3_S3_, symObjAddr: 0x7B64, symBinAddr: 0x10000B518, symSize: 0x2C }
  - { offsetInCU: 0x132BA, offset: 0x132BA, size: 0x8, addend: 0x0, symName: __ZNSt3__116reverse_iteratorIPiEC2B8ue170006ES1_, symObjAddr: 0x7B90, symBinAddr: 0x10000B544, symSize: 0x28 }
  - { offsetInCU: 0x132F1, offset: 0x132F1, size: 0x8, addend: 0x0, symName: __ZNSt3__114__split_bufferIiRNS_9allocatorIiEEED2Ev, symObjAddr: 0x7BB8, symBinAddr: 0x10000B56C, symSize: 0x80 }
  - { offsetInCU: 0x1331C, offset: 0x1331C, size: 0x8, addend: 0x0, symName: __ZNSt3__114__split_bufferIiRNS_9allocatorIiEEE5clearB8ue170006Ev, symObjAddr: 0x7C38, symBinAddr: 0x10000B5EC, symSize: 0x28 }
  - { offsetInCU: 0x13341, offset: 0x13341, size: 0x8, addend: 0x0, symName: __ZNKSt3__114__split_bufferIiRNS_9allocatorIiEEE8capacityB8ue170006Ev, symObjAddr: 0x7C60, symBinAddr: 0x10000B614, symSize: 0x40 }
  - { offsetInCU: 0x13366, offset: 0x13366, size: 0x8, addend: 0x0, symName: __ZNSt3__114__split_bufferIiRNS_9allocatorIiEEE17__destruct_at_endB8ue170006EPi, symObjAddr: 0x7CA0, symBinAddr: 0x10000B654, symSize: 0x2C }
  - { offsetInCU: 0x13399, offset: 0x13399, size: 0x8, addend: 0x0, symName: __ZNSt3__114__split_bufferIiRNS_9allocatorIiEEE17__destruct_at_endB8ue170006EPiNS_17integral_constantIbLb0EEE, symObjAddr: 0x7CCC, symBinAddr: 0x10000B680, symSize: 0x94 }
  - { offsetInCU: 0x133D8, offset: 0x133D8, size: 0x8, addend: 0x0, symName: __ZNKSt3__114__split_bufferIiRNS_9allocatorIiEEE9__end_capB8ue170006Ev, symObjAddr: 0x7D60, symBinAddr: 0x10000B714, symSize: 0x28 }
  - { offsetInCU: 0x133FD, offset: 0x133FD, size: 0x8, addend: 0x0, symName: __ZNKSt3__117__compressed_pairIPiRNS_9allocatorIiEEE5firstB8ue170006Ev, symObjAddr: 0x7D88, symBinAddr: 0x10000B73C, symSize: 0x24 }
  - { offsetInCU: 0x13422, offset: 0x13422, size: 0x8, addend: 0x0, symName: __ZNSt3__16vectorIiNS_9allocatorIiEEE11__make_iterB8ue170006EPi, symObjAddr: 0x7DAC, symBinAddr: 0x10000B760, symSize: 0x30 }
  - { offsetInCU: 0x13456, offset: 0x13456, size: 0x8, addend: 0x0, symName: __ZNSt3__111__wrap_iterIPiEC1B8ue170006ES1_, symObjAddr: 0x7DDC, symBinAddr: 0x10000B790, symSize: 0x34 }
  - { offsetInCU: 0x1348D, offset: 0x1348D, size: 0x8, addend: 0x0, symName: __ZNSt3__111__wrap_iterIPiEC2B8ue170006ES1_, symObjAddr: 0x7E10, symBinAddr: 0x10000B7C4, symSize: 0x20 }
  - { offsetInCU: 0x134C4, offset: 0x134C4, size: 0x8, addend: 0x0, symName: __ZNSt3__18_IterOpsINS_17_ClassicAlgPolicyEE4nextB8ue170006IPiEET_S5_S5_, symObjAddr: 0x8098, symBinAddr: 0x10000BA4C, symSize: 0x18 }
  - { offsetInCU: 0x134FB, offset: 0x134FB, size: 0x8, addend: 0x0, symName: __ZNSt3__18_IterOpsINS_17_ClassicAlgPolicyEE9iter_swapB8ue170006IRPiS5_EEvOT_OT0_, symObjAddr: 0x828C, symBinAddr: 0x10000BC40, symSize: 0x34 }
  - { offsetInCU: 0x1353E, offset: 0x1353E, size: 0x8, addend: 0x0, symName: __ZNSt3__18_IterOpsINS_17_ClassicAlgPolicyEE11__iter_moveB8ue170006IRPiEENS_9enable_ifIXsr12is_referenceIDTdeclsr3stdE7declvalIRT_EEEEE5valueEDTclsr3stdE4movedeclsr3stdE7declvalIS8_EEEEE4typeEOS7_, symObjAddr: 0x85DC, symBinAddr: 0x10000BF90, symSize: 0x28 }
  - { offsetInCU: 0x1356A, offset: 0x1356A, size: 0x8, addend: 0x0, symName: __ZNSt3__18_IterOpsINS_17_ClassicAlgPolicyEE25__validate_iter_referenceB8ue170006IRPiEEvv, symObjAddr: 0x8604, symBinAddr: 0x10000BFB8, symSize: 0x4 }
  - { offsetInCU: 0x13588, offset: 0x13588, size: 0x8, addend: 0x0, symName: __ZNSt3__118__unwrap_iter_implINS_11__wrap_iterIPiEELb1EE8__unwrapB8ue170006ES3_, symObjAddr: 0x8918, symBinAddr: 0x10000C2CC, symSize: 0x28 }
  - { offsetInCU: 0x135B5, offset: 0x135B5, size: 0x8, addend: 0x0, symName: __ZNSt3__119__to_address_helperINS_11__wrap_iterIPiEEvE6__callB8ue170006ERKS3_, symObjAddr: 0x8964, symBinAddr: 0x10000C318, symSize: 0x30 }
  - { offsetInCU: 0x135D8, offset: 0x135D8, size: 0x8, addend: 0x0, symName: __ZNSt3__114pointer_traitsINS_11__wrap_iterIPiEEE10to_addressB8ue170006ES3_, symObjAddr: 0x8994, symBinAddr: 0x10000C348, symSize: 0x2C }
  - { offsetInCU: 0x135FB, offset: 0x135FB, size: 0x8, addend: 0x0, symName: __ZNKSt3__111__wrap_iterIPiE4baseB8ue170006Ev, symObjAddr: 0x89C0, symBinAddr: 0x10000C374, symSize: 0x18 }
  - { offsetInCU: 0x1363E, offset: 0x1363E, size: 0x8, addend: 0x0, symName: __ZNKSt3__113basic_ostreamIcNS_11char_traitsIcEEE6sentrycvbB8ue170006Ev, symObjAddr: 0x8BCC, symBinAddr: 0x10000C580, symSize: 0x1C }
  - { offsetInCU: 0x13663, offset: 0x13663, size: 0x8, addend: 0x0, symName: __ZNSt3__119ostreambuf_iteratorIcNS_11char_traitsIcEEEC1B8ue170006ERNS_13basic_ostreamIcS2_EE, symObjAddr: 0x8E30, symBinAddr: 0x10000C7E4, symSize: 0x34 }
  - { offsetInCU: 0x1369A, offset: 0x1369A, size: 0x8, addend: 0x0, symName: __ZNKSt3__18ios_base5flagsB8ue170006Ev, symObjAddr: 0x8E64, symBinAddr: 0x10000C818, symSize: 0x18 }
  - { offsetInCU: 0x136C1, offset: 0x136C1, size: 0x8, addend: 0x0, symName: __ZNKSt3__19basic_iosIcNS_11char_traitsIcEEE4fillB8ue170006Ev, symObjAddr: 0x8E7C, symBinAddr: 0x10000C830, symSize: 0x64 }
  - { offsetInCU: 0x136E7, offset: 0x136E7, size: 0x8, addend: 0x0, symName: __ZNKSt3__119ostreambuf_iteratorIcNS_11char_traitsIcEEE6failedB8ue170006Ev, symObjAddr: 0x8EE0, symBinAddr: 0x10000C894, symSize: 0x24 }
  - { offsetInCU: 0x1370C, offset: 0x1370C, size: 0x8, addend: 0x0, symName: __ZNSt3__19basic_iosIcNS_11char_traitsIcEEE8setstateB8ue170006Ej, symObjAddr: 0x8F04, symBinAddr: 0x10000C8B8, symSize: 0x2C }
  - { offsetInCU: 0x13740, offset: 0x13740, size: 0x8, addend: 0x0, symName: __ZNKSt3__18ios_base5widthB8ue170006Ev, symObjAddr: 0x8F30, symBinAddr: 0x10000C8E4, symSize: 0x18 }
  - { offsetInCU: 0x13767, offset: 0x13767, size: 0x8, addend: 0x0, symName: __ZNSt3__115basic_streambufIcNS_11char_traitsIcEEE5sputnB8ue170006EPKcl, symObjAddr: 0x8F48, symBinAddr: 0x10000C8FC, symSize: 0x3C }
  - { offsetInCU: 0x137A8, offset: 0x137A8, size: 0x8, addend: 0x0, symName: __ZNSt3__112basic_stringIcNS_11char_traitsIcEENS_9allocatorIcEEEC1B8ue170006Emc, symObjAddr: 0x8F84, symBinAddr: 0x10000C938, symSize: 0x3C }
  - { offsetInCU: 0x137EF, offset: 0x137EF, size: 0x8, addend: 0x0, symName: __ZNKSt3__112basic_stringIcNS_11char_traitsIcEENS_9allocatorIcEEE4dataB8ue170006Ev, symObjAddr: 0x8FC0, symBinAddr: 0x10000C974, symSize: 0x28 }
  - { offsetInCU: 0x13814, offset: 0x13814, size: 0x8, addend: 0x0, symName: __ZNSt3__18ios_base5widthB8ue170006El, symObjAddr: 0x8FE8, symBinAddr: 0x10000C99C, symSize: 0x2C }
  - { offsetInCU: 0x13859, offset: 0x13859, size: 0x8, addend: 0x0, symName: __ZNSt3__112basic_stringIcNS_11char_traitsIcEENS_9allocatorIcEEEC2B8ue170006Emc, symObjAddr: 0x9014, symBinAddr: 0x10000C9C8, symSize: 0x4C }
  - { offsetInCU: 0x138A0, offset: 0x138A0, size: 0x8, addend: 0x0, symName: __ZNSt3__117__compressed_pairINS_12basic_stringIcNS_11char_traitsIcEENS_9allocatorIcEEE5__repES5_EC1B8ue170006INS_18__default_init_tagESA_EEOT_OT0_, symObjAddr: 0x9060, symBinAddr: 0x10000CA14, symSize: 0x3C }
  - { offsetInCU: 0x138F7, offset: 0x138F7, size: 0x8, addend: 0x0, symName: __ZNSt3__117__compressed_pairINS_12basic_stringIcNS_11char_traitsIcEENS_9allocatorIcEEE5__repES5_EC2B8ue170006INS_18__default_init_tagESA_EEOT_OT0_, symObjAddr: 0x909C, symBinAddr: 0x10000CA50, symSize: 0x3C }
  - { offsetInCU: 0x1394E, offset: 0x1394E, size: 0x8, addend: 0x0, symName: __ZNSt3__122__compressed_pair_elemINS_12basic_stringIcNS_11char_traitsIcEENS_9allocatorIcEEE5__repELi0ELb0EEC2B8ue170006ENS_18__default_init_tagE, symObjAddr: 0x90D8, symBinAddr: 0x10000CA8C, symSize: 0x14 }
  - { offsetInCU: 0x13982, offset: 0x13982, size: 0x8, addend: 0x0, symName: __ZNSt3__122__compressed_pair_elemINS_9allocatorIcEELi1ELb1EEC2B8ue170006ENS_18__default_init_tagE, symObjAddr: 0x90EC, symBinAddr: 0x10000CAA0, symSize: 0x2C }
  - { offsetInCU: 0x139B6, offset: 0x139B6, size: 0x8, addend: 0x0, symName: __ZNSt3__19allocatorIcEC2B8ue170006Ev, symObjAddr: 0x9118, symBinAddr: 0x10000CACC, symSize: 0x2C }
  - { offsetInCU: 0x139DF, offset: 0x139DF, size: 0x8, addend: 0x0, symName: __ZNSt3__116__non_trivial_ifILb1ENS_9allocatorIcEEEC2B8ue170006Ev, symObjAddr: 0x9144, symBinAddr: 0x10000CAF8, symSize: 0x14 }
  - { offsetInCU: 0x13A08, offset: 0x13A08, size: 0x8, addend: 0x0, symName: __ZNKSt3__112basic_stringIcNS_11char_traitsIcEENS_9allocatorIcEEE13__get_pointerB8ue170006Ev, symObjAddr: 0x916C, symBinAddr: 0x10000CB20, symSize: 0x54 }
  - { offsetInCU: 0x13A2D, offset: 0x13A2D, size: 0x8, addend: 0x0, symName: __ZNKSt3__112basic_stringIcNS_11char_traitsIcEENS_9allocatorIcEEE9__is_longB8ue170006Ev, symObjAddr: 0x91C0, symBinAddr: 0x10000CB74, symSize: 0x74 }
  - { offsetInCU: 0x13A52, offset: 0x13A52, size: 0x8, addend: 0x0, symName: __ZNKSt3__112basic_stringIcNS_11char_traitsIcEENS_9allocatorIcEEE18__get_long_pointerB8ue170006Ev, symObjAddr: 0x9234, symBinAddr: 0x10000CBE8, symSize: 0x28 }
  - { offsetInCU: 0x13A77, offset: 0x13A77, size: 0x8, addend: 0x0, symName: __ZNKSt3__112basic_stringIcNS_11char_traitsIcEENS_9allocatorIcEEE19__get_short_pointerB8ue170006Ev, symObjAddr: 0x925C, symBinAddr: 0x10000CC10, symSize: 0x28 }
  - { offsetInCU: 0x13A9C, offset: 0x13A9C, size: 0x8, addend: 0x0, symName: __ZNKSt3__117__compressed_pairINS_12basic_stringIcNS_11char_traitsIcEENS_9allocatorIcEEE5__repES5_E5firstB8ue170006Ev, symObjAddr: 0x9284, symBinAddr: 0x10000CC38, symSize: 0x24 }
  - { offsetInCU: 0x13AC1, offset: 0x13AC1, size: 0x8, addend: 0x0, symName: __ZNKSt3__122__compressed_pair_elemINS_12basic_stringIcNS_11char_traitsIcEENS_9allocatorIcEEE5__repELi0ELb0EE5__getB8ue170006Ev, symObjAddr: 0x92A8, symBinAddr: 0x10000CC5C, symSize: 0x14 }
  - { offsetInCU: 0x13AE6, offset: 0x13AE6, size: 0x8, addend: 0x0, symName: __ZNSt3__114pointer_traitsIPKcE10pointer_toB8ue170006ERS1_, symObjAddr: 0x92BC, symBinAddr: 0x10000CC70, symSize: 0x14 }
  - { offsetInCU: 0x13B09, offset: 0x13B09, size: 0x8, addend: 0x0, symName: __ZNSt3__119ostreambuf_iteratorIcNS_11char_traitsIcEEEC2B8ue170006ERNS_13basic_ostreamIcS2_EE, symObjAddr: 0x92D0, symBinAddr: 0x10000CC84, symSize: 0x68 }
  - { offsetInCU: 0x13B40, offset: 0x13B40, size: 0x8, addend: 0x0, symName: __ZNKSt3__19basic_iosIcNS_11char_traitsIcEEE5rdbufB8ue170006Ev, symObjAddr: 0x9338, symBinAddr: 0x10000CCEC, symSize: 0x24 }
  - { offsetInCU: 0x13B66, offset: 0x13B66, size: 0x8, addend: 0x0, symName: __ZNKSt3__18ios_base5rdbufB8ue170006Ev, symObjAddr: 0x935C, symBinAddr: 0x10000CD10, symSize: 0x18 }
  - { offsetInCU: 0x13B8B, offset: 0x13B8B, size: 0x8, addend: 0x0, symName: __ZNSt3__111char_traitsIcE11eq_int_typeB8ue170006Eii, symObjAddr: 0x9374, symBinAddr: 0x10000CD28, symSize: 0x28 }
  - { offsetInCU: 0x13BBE, offset: 0x13BBE, size: 0x8, addend: 0x0, symName: __ZNSt3__111char_traitsIcE3eofB8ue170006Ev, symObjAddr: 0x939C, symBinAddr: 0x10000CD50, symSize: 0x8 }
  - { offsetInCU: 0x13BD2, offset: 0x13BD2, size: 0x8, addend: 0x0, symName: __ZNKSt3__19basic_iosIcNS_11char_traitsIcEEE5widenB8ue170006Ec, symObjAddr: 0x93A4, symBinAddr: 0x10000CD58, symSize: 0x8C }
  - { offsetInCU: 0x13C3E, offset: 0x13C3E, size: 0x8, addend: 0x0, symName: __ZNKSt3__15ctypeIcE5widenB8ue170006Ec, symObjAddr: 0x945C, symBinAddr: 0x10000CE10, symSize: 0x38 }
  - { offsetInCU: 0x13C72, offset: 0x13C72, size: 0x8, addend: 0x0, symName: __ZNSt3__18ios_base8setstateB8ue170006Ej, symObjAddr: 0x9494, symBinAddr: 0x10000CE48, symSize: 0x34 }
  - { offsetInCU: 0x13CA7, offset: 0x13CA7, size: 0x8, addend: 0x0, symName: __ZNSt3__16vectorI3JobNS_9allocatorIS1_EEEC2B8ue170006Ev, symObjAddr: 0x94C8, symBinAddr: 0x10000CE7C, symSize: 0x44 }
  - { offsetInCU: 0x13CD0, offset: 0x13CD0, size: 0x8, addend: 0x0, symName: __ZNSt3__117__compressed_pairIP3JobNS_9allocatorIS1_EEEC1B8ue170006IDnNS_18__default_init_tagEEEOT_OT0_, symObjAddr: 0x950C, symBinAddr: 0x10000CEC0, symSize: 0x3C }
  - { offsetInCU: 0x13D27, offset: 0x13D27, size: 0x8, addend: 0x0, symName: __ZNSt3__117__compressed_pairIP3JobNS_9allocatorIS1_EEEC2B8ue170006IDnNS_18__default_init_tagEEEOT_OT0_, symObjAddr: 0x9548, symBinAddr: 0x10000CEFC, symSize: 0x40 }
  - { offsetInCU: 0x13D7E, offset: 0x13D7E, size: 0x8, addend: 0x0, symName: __ZNSt3__122__compressed_pair_elemIP3JobLi0ELb0EEC2B8ue170006IDnvEEOT_, symObjAddr: 0x9588, symBinAddr: 0x10000CF3C, symSize: 0x1C }
  - { offsetInCU: 0x13DBF, offset: 0x13DBF, size: 0x8, addend: 0x0, symName: __ZNSt3__122__compressed_pair_elemINS_9allocatorI3JobEELi1ELb1EEC2B8ue170006ENS_18__default_init_tagE, symObjAddr: 0x95A4, symBinAddr: 0x10000CF58, symSize: 0x2C }
  - { offsetInCU: 0x13DF3, offset: 0x13DF3, size: 0x8, addend: 0x0, symName: __ZNSt3__19allocatorI3JobEC2B8ue170006Ev, symObjAddr: 0x95D0, symBinAddr: 0x10000CF84, symSize: 0x2C }
  - { offsetInCU: 0x13E1C, offset: 0x13E1C, size: 0x8, addend: 0x0, symName: __ZNSt3__116__non_trivial_ifILb1ENS_9allocatorI3JobEEEC2B8ue170006Ev, symObjAddr: 0x95FC, symBinAddr: 0x10000CFB0, symSize: 0x14 }
  - { offsetInCU: 0x13E45, offset: 0x13E45, size: 0x8, addend: 0x0, symName: __ZNSt3__16vectorI3JobNS_9allocatorIS1_EEED2B8ue170006Ev, symObjAddr: 0x9610, symBinAddr: 0x10000CFC4, symSize: 0x3C }
  - { offsetInCU: 0x13E6E, offset: 0x13E6E, size: 0x8, addend: 0x0, symName: __ZNSt3__16vectorI3JobNS_9allocatorIS1_EEE16__destroy_vectorC1B8ue170006ERS4_, symObjAddr: 0x964C, symBinAddr: 0x10000D000, symSize: 0x34 }
  - { offsetInCU: 0x13EA6, offset: 0x13EA6, size: 0x8, addend: 0x0, symName: __ZNSt3__16vectorI3JobNS_9allocatorIS1_EEE16__destroy_vectorclB8ue170006Ev, symObjAddr: 0x9680, symBinAddr: 0x10000D034, symSize: 0x90 }
  - { offsetInCU: 0x13ECB, offset: 0x13ECB, size: 0x8, addend: 0x0, symName: __ZNSt3__16vectorI3JobNS_9allocatorIS1_EEE16__destroy_vectorC2B8ue170006ERS4_, symObjAddr: 0x9710, symBinAddr: 0x10000D0C4, symSize: 0x20 }
  - { offsetInCU: 0x13F03, offset: 0x13F03, size: 0x8, addend: 0x0, symName: __ZNSt3__16vectorI3JobNS_9allocatorIS1_EEE7__clearB8ue170006Ev, symObjAddr: 0x9730, symBinAddr: 0x10000D0E4, symSize: 0x28 }
  - { offsetInCU: 0x13F28, offset: 0x13F28, size: 0x8, addend: 0x0, symName: __ZNKSt3__16vectorI3JobNS_9allocatorIS1_EEE17__annotate_deleteB8ue170006Ev, symObjAddr: 0x9758, symBinAddr: 0x10000D10C, symSize: 0xD4 }
  - { offsetInCU: 0x13F4D, offset: 0x13F4D, size: 0x8, addend: 0x0, symName: __ZNSt3__116allocator_traitsINS_9allocatorI3JobEEE10deallocateB8ue170006ERS3_PS2_m, symObjAddr: 0x982C, symBinAddr: 0x10000D1E0, symSize: 0x34 }
  - { offsetInCU: 0x13F8F, offset: 0x13F8F, size: 0x8, addend: 0x0, symName: __ZNSt3__16vectorI3JobNS_9allocatorIS1_EEE7__allocB8ue170006Ev, symObjAddr: 0x9860, symBinAddr: 0x10000D214, symSize: 0x28 }
  - { offsetInCU: 0x13FB4, offset: 0x13FB4, size: 0x8, addend: 0x0, symName: __ZNKSt3__16vectorI3JobNS_9allocatorIS1_EEE8capacityB8ue170006Ev, symObjAddr: 0x9888, symBinAddr: 0x10000D23C, symSize: 0x40 }
  - { offsetInCU: 0x13FD9, offset: 0x13FD9, size: 0x8, addend: 0x0, symName: __ZNSt3__16vectorI3JobNS_9allocatorIS1_EEE22__base_destruct_at_endB8ue170006EPS1_, symObjAddr: 0x98C8, symBinAddr: 0x10000D27C, symSize: 0xA0 }
  - { offsetInCU: 0x1401C, offset: 0x1401C, size: 0x8, addend: 0x0, symName: __ZNSt3__116allocator_traitsINS_9allocatorI3JobEEE7destroyB8ue170006IS2_vEEvRS3_PT_, symObjAddr: 0x9968, symBinAddr: 0x10000D31C, symSize: 0x2C }
  - { offsetInCU: 0x14059, offset: 0x14059, size: 0x8, addend: 0x0, symName: __ZNSt3__19allocatorI3JobE7destroyB8ue170006EPS1_, symObjAddr: 0x9994, symBinAddr: 0x10000D348, symSize: 0x14 }
  - { offsetInCU: 0x1408C, offset: 0x1408C, size: 0x8, addend: 0x0, symName: __ZNKSt3__16vectorI3JobNS_9allocatorIS1_EEE31__annotate_contiguous_containerB8ue170006EPKvS6_S6_S6_, symObjAddr: 0x99A8, symBinAddr: 0x10000D35C, symSize: 0x20 }
  - { offsetInCU: 0x140DD, offset: 0x140DD, size: 0x8, addend: 0x0, symName: __ZNKSt3__16vectorI3JobNS_9allocatorIS1_EEE4dataB8ue170006Ev, symObjAddr: 0x99C8, symBinAddr: 0x10000D37C, symSize: 0x28 }
  - { offsetInCU: 0x14102, offset: 0x14102, size: 0x8, addend: 0x0, symName: __ZNSt3__19allocatorI3JobE10deallocateB8ue170006EPS1_m, symObjAddr: 0x99F0, symBinAddr: 0x10000D3A4, symSize: 0x74 }
  - { offsetInCU: 0x14143, offset: 0x14143, size: 0x8, addend: 0x0, symName: __ZNSt3__117__compressed_pairIP3JobNS_9allocatorIS1_EEE6secondB8ue170006Ev, symObjAddr: 0x9A64, symBinAddr: 0x10000D418, symSize: 0x24 }
  - { offsetInCU: 0x14168, offset: 0x14168, size: 0x8, addend: 0x0, symName: __ZNSt3__122__compressed_pair_elemINS_9allocatorI3JobEELi1ELb1EE5__getB8ue170006Ev, symObjAddr: 0x9A88, symBinAddr: 0x10000D43C, symSize: 0x14 }
  - { offsetInCU: 0x1418D, offset: 0x1418D, size: 0x8, addend: 0x0, symName: __ZNKSt3__16vectorI3JobNS_9allocatorIS1_EEE9__end_capB8ue170006Ev, symObjAddr: 0x9A9C, symBinAddr: 0x10000D450, symSize: 0x28 }
  - { offsetInCU: 0x141B2, offset: 0x141B2, size: 0x8, addend: 0x0, symName: __ZNKSt3__117__compressed_pairIP3JobNS_9allocatorIS1_EEE5firstB8ue170006Ev, symObjAddr: 0x9AC4, symBinAddr: 0x10000D478, symSize: 0x24 }
  - { offsetInCU: 0x141D7, offset: 0x141D7, size: 0x8, addend: 0x0, symName: __ZNKSt3__122__compressed_pair_elemIP3JobLi0ELb0EE5__getB8ue170006Ev, symObjAddr: 0x9AE8, symBinAddr: 0x10000D49C, symSize: 0x14 }
  - { offsetInCU: 0x141FC, offset: 0x141FC, size: 0x8, addend: 0x0, symName: __ZNSt3__16vectorI3JobNS_9allocatorIS1_EEE9__end_capB8ue170006Ev, symObjAddr: 0x9AFC, symBinAddr: 0x10000D4B0, symSize: 0x28 }
  - { offsetInCU: 0x14221, offset: 0x14221, size: 0x8, addend: 0x0, symName: __ZNSt3__16vectorI3JobNS_9allocatorIS1_EEE22__construct_one_at_endB8ue170006IJRKS1_EEEvDpOT_, symObjAddr: 0x9B24, symBinAddr: 0x10000D4D8, symSize: 0x98 }
  - { offsetInCU: 0x1426F, offset: 0x1426F, size: 0x8, addend: 0x0, symName: __ZNSt3__16vectorI3JobNS_9allocatorIS1_EEE21__push_back_slow_pathIRKS1_EEvOT_, symObjAddr: 0x9BBC, symBinAddr: 0x10000D570, symSize: 0xE0 }
  - { offsetInCU: 0x142CB, offset: 0x142CB, size: 0x8, addend: 0x0, symName: __ZNSt3__117__compressed_pairIP3JobNS_9allocatorIS1_EEE5firstB8ue170006Ev, symObjAddr: 0x9C9C, symBinAddr: 0x10000D650, symSize: 0x24 }
  - { offsetInCU: 0x142F0, offset: 0x142F0, size: 0x8, addend: 0x0, symName: __ZNSt3__122__compressed_pair_elemIP3JobLi0ELb0EE5__getB8ue170006Ev, symObjAddr: 0x9CC0, symBinAddr: 0x10000D674, symSize: 0x14 }
  - { offsetInCU: 0x1432E, offset: 0x1432E, size: 0x8, addend: 0x0, symName: __ZNSt3__16vectorI3JobNS_9allocatorIS1_EEE21_ConstructTransactionC1B8ue170006ERS4_m, symObjAddr: 0x9CD4, symBinAddr: 0x10000D688, symSize: 0x3C }
  - { offsetInCU: 0x14375, offset: 0x14375, size: 0x8, addend: 0x0, symName: __ZNSt3__116allocator_traitsINS_9allocatorI3JobEEE9constructB8ue170006IS2_JRKS2_EvEEvRS3_PT_DpOT0_, symObjAddr: 0x9D10, symBinAddr: 0x10000D6C4, symSize: 0x34 }
  - { offsetInCU: 0x143CC, offset: 0x143CC, size: 0x8, addend: 0x0, symName: __ZNSt3__16vectorI3JobNS_9allocatorIS1_EEE21_ConstructTransactionD1B8ue170006Ev, symObjAddr: 0x9D44, symBinAddr: 0x10000D6F8, symSize: 0x2C }
  - { offsetInCU: 0x143F5, offset: 0x143F5, size: 0x8, addend: 0x0, symName: __ZNSt3__16vectorI3JobNS_9allocatorIS1_EEE21_ConstructTransactionC2B8ue170006ERS4_m, symObjAddr: 0x9D70, symBinAddr: 0x10000D724, symSize: 0x4C }
  - { offsetInCU: 0x1443C, offset: 0x1443C, size: 0x8, addend: 0x0, symName: __ZNSt3__19allocatorI3JobE9constructB8ue170006IS1_JRKS1_EEEvPT_DpOT0_, symObjAddr: 0x9DBC, symBinAddr: 0x10000D770, symSize: 0x30 }
  - { offsetInCU: 0x14491, offset: 0x14491, size: 0x8, addend: 0x0, symName: __ZNSt3__16vectorI3JobNS_9allocatorIS1_EEE21_ConstructTransactionD2B8ue170006Ev, symObjAddr: 0x9DEC, symBinAddr: 0x10000D7A0, symSize: 0x20 }
  - { offsetInCU: 0x144BA, offset: 0x144BA, size: 0x8, addend: 0x0, symName: __ZNKSt3__16vectorI3JobNS_9allocatorIS1_EEE11__recommendB8ue170006Em, symObjAddr: 0x9E0C, symBinAddr: 0x10000D7C0, symSize: 0xB4 }
  - { offsetInCU: 0x1450D, offset: 0x1450D, size: 0x8, addend: 0x0, symName: __ZNSt3__114__split_bufferI3JobRNS_9allocatorIS1_EEEC1EmmS4_, symObjAddr: 0x9EC0, symBinAddr: 0x10000D874, symSize: 0x44 }
  - { offsetInCU: 0x14562, offset: 0x14562, size: 0x8, addend: 0x0, symName: __ZNSt3__114__split_bufferI3JobRNS_9allocatorIS1_EEED1Ev, symObjAddr: 0xA014, symBinAddr: 0x10000D9C8, symSize: 0x2C }
  - { offsetInCU: 0x1458D, offset: 0x1458D, size: 0x8, addend: 0x0, symName: __ZNKSt3__16vectorI3JobNS_9allocatorIS1_EEE8max_sizeEv, symObjAddr: 0xA040, symBinAddr: 0x10000D9F4, symSize: 0x74 }
  - { offsetInCU: 0x145B3, offset: 0x145B3, size: 0x8, addend: 0x0, symName: __ZNKSt3__16vectorI3JobNS_9allocatorIS1_EEE20__throw_length_errorB8ue170006Ev, symObjAddr: 0xA0B4, symBinAddr: 0x10000DA68, symSize: 0x1C }
  - { offsetInCU: 0x145E2, offset: 0x145E2, size: 0x8, addend: 0x0, symName: __ZNSt3__116allocator_traitsINS_9allocatorI3JobEEE8max_sizeB8ue170006IS3_vEEmRKS3_, symObjAddr: 0xA0D0, symBinAddr: 0x10000DA84, symSize: 0x24 }
  - { offsetInCU: 0x14610, offset: 0x14610, size: 0x8, addend: 0x0, symName: __ZNKSt3__16vectorI3JobNS_9allocatorIS1_EEE7__allocB8ue170006Ev, symObjAddr: 0xA0F4, symBinAddr: 0x10000DAA8, symSize: 0x28 }
  - { offsetInCU: 0x14635, offset: 0x14635, size: 0x8, addend: 0x0, symName: __ZNKSt3__19allocatorI3JobE8max_sizeB8ue170006Ev, symObjAddr: 0xA11C, symBinAddr: 0x10000DAD0, symSize: 0x18 }
  - { offsetInCU: 0x1465A, offset: 0x1465A, size: 0x8, addend: 0x0, symName: __ZNKSt3__117__compressed_pairIP3JobNS_9allocatorIS1_EEE6secondB8ue170006Ev, symObjAddr: 0xA134, symBinAddr: 0x10000DAE8, symSize: 0x24 }
  - { offsetInCU: 0x1467F, offset: 0x1467F, size: 0x8, addend: 0x0, symName: __ZNKSt3__122__compressed_pair_elemINS_9allocatorI3JobEELi1ELb1EE5__getB8ue170006Ev, symObjAddr: 0xA158, symBinAddr: 0x10000DB0C, symSize: 0x14 }
  - { offsetInCU: 0x146A4, offset: 0x146A4, size: 0x8, addend: 0x0, symName: __ZNSt3__114__split_bufferI3JobRNS_9allocatorIS1_EEEC2EmmS4_, symObjAddr: 0xA16C, symBinAddr: 0x10000DB20, symSize: 0xE0 }
  - { offsetInCU: 0x14716, offset: 0x14716, size: 0x8, addend: 0x0, symName: __ZNSt3__117__compressed_pairIP3JobRNS_9allocatorIS1_EEEC1B8ue170006IDnS5_EEOT_OT0_, symObjAddr: 0xA24C, symBinAddr: 0x10000DC00, symSize: 0x3C }
  - { offsetInCU: 0x1476D, offset: 0x1476D, size: 0x8, addend: 0x0, symName: __ZNSt3__114__split_bufferI3JobRNS_9allocatorIS1_EEE7__allocB8ue170006Ev, symObjAddr: 0xA2C8, symBinAddr: 0x10000DC7C, symSize: 0x28 }
  - { offsetInCU: 0x14792, offset: 0x14792, size: 0x8, addend: 0x0, symName: __ZNSt3__114__split_bufferI3JobRNS_9allocatorIS1_EEE9__end_capB8ue170006Ev, symObjAddr: 0xA2F0, symBinAddr: 0x10000DCA4, symSize: 0x28 }
  - { offsetInCU: 0x147B7, offset: 0x147B7, size: 0x8, addend: 0x0, symName: __ZNSt3__117__compressed_pairIP3JobRNS_9allocatorIS1_EEEC2B8ue170006IDnS5_EEOT_OT0_, symObjAddr: 0xA318, symBinAddr: 0x10000DCCC, symSize: 0x48 }
  - { offsetInCU: 0x1480E, offset: 0x1480E, size: 0x8, addend: 0x0, symName: __ZNSt3__122__compressed_pair_elemIRNS_9allocatorI3JobEELi1ELb0EEC2B8ue170006IS4_vEEOT_, symObjAddr: 0xA360, symBinAddr: 0x10000DD14, symSize: 0x20 }
  - { offsetInCU: 0x1484F, offset: 0x1484F, size: 0x8, addend: 0x0, symName: __ZNSt3__19allocatorI3JobE8allocateB8ue170006Em, symObjAddr: 0xA380, symBinAddr: 0x10000DD34, symSize: 0x8C }
  - { offsetInCU: 0x14882, offset: 0x14882, size: 0x8, addend: 0x0, symName: __ZNSt3__117__compressed_pairIP3JobRNS_9allocatorIS1_EEE6secondB8ue170006Ev, symObjAddr: 0xA40C, symBinAddr: 0x10000DDC0, symSize: 0x28 }
  - { offsetInCU: 0x148A7, offset: 0x148A7, size: 0x8, addend: 0x0, symName: __ZNSt3__122__compressed_pair_elemIRNS_9allocatorI3JobEELi1ELb0EE5__getB8ue170006Ev, symObjAddr: 0xA434, symBinAddr: 0x10000DDE8, symSize: 0x18 }
  - { offsetInCU: 0x148CC, offset: 0x148CC, size: 0x8, addend: 0x0, symName: __ZNSt3__117__compressed_pairIP3JobRNS_9allocatorIS1_EEE5firstB8ue170006Ev, symObjAddr: 0xA44C, symBinAddr: 0x10000DE00, symSize: 0x24 }
  - { offsetInCU: 0x148F1, offset: 0x148F1, size: 0x8, addend: 0x0, symName: __ZNSt3__116reverse_iteratorIP3JobEC1B8ue170006ES2_, symObjAddr: 0xA558, symBinAddr: 0x10000DF0C, symSize: 0x34 }
  - { offsetInCU: 0x14928, offset: 0x14928, size: 0x8, addend: 0x0, symName: __ZNKSt3__116reverse_iteratorIP3JobE4baseB8ue170006Ev, symObjAddr: 0xA58C, symBinAddr: 0x10000DF40, symSize: 0x18 }
  - { offsetInCU: 0x1494D, offset: 0x1494D, size: 0x8, addend: 0x0, symName: __ZNKSt3__16vectorI3JobNS_9allocatorIS1_EEE14__annotate_newB8ue170006Em, symObjAddr: 0xA5E0, symBinAddr: 0x10000DF94, symSize: 0xC8 }
  - { offsetInCU: 0x14981, offset: 0x14981, size: 0x8, addend: 0x0, symName: __ZNKSt3__116reverse_iteratorIP3JobEdeB8ue170006Ev, symObjAddr: 0xA748, symBinAddr: 0x10000E0FC, symSize: 0x28 }
  - { offsetInCU: 0x149B4, offset: 0x149B4, size: 0x8, addend: 0x0, symName: __ZNSt3__116reverse_iteratorIP3JobEppB8ue170006Ev, symObjAddr: 0xA770, symBinAddr: 0x10000E124, symSize: 0x20 }
  - { offsetInCU: 0x149DE, offset: 0x149DE, size: 0x8, addend: 0x0, symName: __ZNSt3__119__to_address_helperINS_16reverse_iteratorIP3JobEEvE6__callB8ue170006ERKS4_, symObjAddr: 0xA808, symBinAddr: 0x10000E1BC, symSize: 0x4C }
  - { offsetInCU: 0x14A01, offset: 0x14A01, size: 0x8, addend: 0x0, symName: __ZNKSt3__116reverse_iteratorIP3JobEptB8ue170006Ev, symObjAddr: 0xA854, symBinAddr: 0x10000E208, symSize: 0x24 }
  - { offsetInCU: 0x14A3F, offset: 0x14A3F, size: 0x8, addend: 0x0, symName: __ZNKSt3__111__move_loopINS_17_ClassicAlgPolicyEEclB8ue170006INS_16reverse_iteratorIP3JobEES7_S7_EENS_4pairIT_T1_EES9_T0_SA_, symObjAddr: 0xAAF0, symBinAddr: 0x10000E4A4, symSize: 0xA8 }
  - { offsetInCU: 0x14AA9, offset: 0x14AA9, size: 0x8, addend: 0x0, symName: __ZNSt3__18_IterOpsINS_17_ClassicAlgPolicyEE11__iter_moveB8ue170006IRNS_16reverse_iteratorIP3JobEEEENS_9enable_ifIXsr12is_referenceIDTdeclsr3stdE7declvalIRT_EEEEE5valueEDTclsr3stdE4movedeclsr3stdE7declvalISB_EEEEE4typeEOSA_, symObjAddr: 0xACF8, symBinAddr: 0x10000E6AC, symSize: 0x28 }
  - { offsetInCU: 0x14AD5, offset: 0x14AD5, size: 0x8, addend: 0x0, symName: __ZNSt3__18_IterOpsINS_17_ClassicAlgPolicyEE25__validate_iter_referenceB8ue170006IRNS_16reverse_iteratorIP3JobEEEEvv, symObjAddr: 0xAD20, symBinAddr: 0x10000E6D4, symSize: 0x4 }
  - { offsetInCU: 0x14AF3, offset: 0x14AF3, size: 0x8, addend: 0x0, symName: __ZNSt3__118__unwrap_iter_implINS_16reverse_iteratorIP3JobEELb0EE8__unwrapB8ue170006ES4_, symObjAddr: 0xAD24, symBinAddr: 0x10000E6D8, symSize: 0x24 }
  - { offsetInCU: 0x14B16, offset: 0x14B16, size: 0x8, addend: 0x0, symName: __ZNSt3__14pairINS_16reverse_iteratorIP3JobEES4_EC1B8ue170006ERKS4_S7_, symObjAddr: 0xAD48, symBinAddr: 0x10000E6FC, symSize: 0x3C }
  - { offsetInCU: 0x14B5B, offset: 0x14B5B, size: 0x8, addend: 0x0, symName: __ZNSt3__14pairINS_16reverse_iteratorIP3JobEES4_EC2B8ue170006ERKS4_S7_, symObjAddr: 0xAD84, symBinAddr: 0x10000E738, symSize: 0x34 }
  - { offsetInCU: 0x14BA0, offset: 0x14BA0, size: 0x8, addend: 0x0, symName: __ZNSt3__118__unwrap_iter_implINS_16reverse_iteratorIP3JobEELb0EE8__rewrapB8ue170006ES4_S4_, symObjAddr: 0xADB8, symBinAddr: 0x10000E76C, symSize: 0x2C }
  - { offsetInCU: 0x14BCE, offset: 0x14BCE, size: 0x8, addend: 0x0, symName: __ZNSt3__116reverse_iteratorIP3JobEC2B8ue170006ES2_, symObjAddr: 0xADE4, symBinAddr: 0x10000E798, symSize: 0x28 }
  - { offsetInCU: 0x14C05, offset: 0x14C05, size: 0x8, addend: 0x0, symName: __ZNSt3__114__split_bufferI3JobRNS_9allocatorIS1_EEED2Ev, symObjAddr: 0xAE0C, symBinAddr: 0x10000E7C0, symSize: 0x80 }
  - { offsetInCU: 0x14C30, offset: 0x14C30, size: 0x8, addend: 0x0, symName: __ZNSt3__114__split_bufferI3JobRNS_9allocatorIS1_EEE5clearB8ue170006Ev, symObjAddr: 0xAE8C, symBinAddr: 0x10000E840, symSize: 0x28 }
  - { offsetInCU: 0x14C55, offset: 0x14C55, size: 0x8, addend: 0x0, symName: __ZNKSt3__114__split_bufferI3JobRNS_9allocatorIS1_EEE8capacityB8ue170006Ev, symObjAddr: 0xAEB4, symBinAddr: 0x10000E868, symSize: 0x40 }
  - { offsetInCU: 0x14C7A, offset: 0x14C7A, size: 0x8, addend: 0x0, symName: __ZNSt3__114__split_bufferI3JobRNS_9allocatorIS1_EEE17__destruct_at_endB8ue170006EPS1_, symObjAddr: 0xAEF4, symBinAddr: 0x10000E8A8, symSize: 0x2C }
  - { offsetInCU: 0x14CAD, offset: 0x14CAD, size: 0x8, addend: 0x0, symName: __ZNSt3__114__split_bufferI3JobRNS_9allocatorIS1_EEE17__destruct_at_endB8ue170006EPS1_NS_17integral_constantIbLb0EEE, symObjAddr: 0xAF20, symBinAddr: 0x10000E8D4, symSize: 0x94 }
  - { offsetInCU: 0x14CEC, offset: 0x14CEC, size: 0x8, addend: 0x0, symName: __ZNKSt3__114__split_bufferI3JobRNS_9allocatorIS1_EEE9__end_capB8ue170006Ev, symObjAddr: 0xAFB4, symBinAddr: 0x10000E968, symSize: 0x28 }
  - { offsetInCU: 0x14D11, offset: 0x14D11, size: 0x8, addend: 0x0, symName: __ZNKSt3__117__compressed_pairIP3JobRNS_9allocatorIS1_EEE5firstB8ue170006Ev, symObjAddr: 0xAFDC, symBinAddr: 0x10000E990, symSize: 0x24 }
  - { offsetInCU: 0x14D36, offset: 0x14D36, size: 0x8, addend: 0x0, symName: __ZNSt3__16vectorI3JobNS_9allocatorIS1_EEEC2ERKS4_, symObjAddr: 0xB000, symBinAddr: 0x10000E9B4, symSize: 0x94 }
  - { offsetInCU: 0x14D70, offset: 0x14D70, size: 0x8, addend: 0x0, symName: __ZNSt3__116allocator_traitsINS_9allocatorI3JobEEE37select_on_container_copy_constructionB8ue170006IS3_vvEES3_RKS3_, symObjAddr: 0xB094, symBinAddr: 0x10000EA48, symSize: 0x10 }
  - { offsetInCU: 0x14DA4, offset: 0x14DA4, size: 0x8, addend: 0x0, symName: __ZNSt3__117__compressed_pairIP3JobNS_9allocatorIS1_EEEC1B8ue170006IDnS4_EEOT_OT0_, symObjAddr: 0xB0A4, symBinAddr: 0x10000EA58, symSize: 0x3C }
  - { offsetInCU: 0x14DFB, offset: 0x14DFB, size: 0x8, addend: 0x0, symName: __ZNSt3__16vectorI3JobNS_9allocatorIS1_EEE16__init_with_sizeB8ue170006IPS1_S6_EEvT_T0_m, symObjAddr: 0xB0E0, symBinAddr: 0x10000EA94, symSize: 0xC0 }
  - { offsetInCU: 0x14E6E, offset: 0x14E6E, size: 0x8, addend: 0x0, symName: __ZNSt3__117__compressed_pairIP3JobNS_9allocatorIS1_EEEC2B8ue170006IDnS4_EEOT_OT0_, symObjAddr: 0xB1A0, symBinAddr: 0x10000EB54, symSize: 0x44 }
  - { offsetInCU: 0x14EC5, offset: 0x14EC5, size: 0x8, addend: 0x0, symName: __ZNSt3__122__compressed_pair_elemINS_9allocatorI3JobEELi1ELb1EEC2B8ue170006IS3_vEEOT_, symObjAddr: 0xB1E4, symBinAddr: 0x10000EB98, symSize: 0x18 }
  - { offsetInCU: 0x14F06, offset: 0x14F06, size: 0x8, addend: 0x0, symName: __ZNSt3__16vectorI3JobNS_9allocatorIS1_EEE11__vallocateB8ue170006Em, symObjAddr: 0xB23C, symBinAddr: 0x10000EBF0, symSize: 0xB4 }
  - { offsetInCU: 0x14F49, offset: 0x14F49, size: 0x8, addend: 0x0, symName: __ZNSt3__16vectorI3JobNS_9allocatorIS1_EEE18__construct_at_endIPS1_S6_EEvT_T0_m, symObjAddr: 0xB2F0, symBinAddr: 0x10000ECA4, symSize: 0x94 }
  - { offsetInCU: 0x14FBD, offset: 0x14FBD, size: 0x8, addend: 0x0, symName: __ZNSt3__128__exception_guard_exceptionsINS_6vectorI3JobNS_9allocatorIS2_EEE16__destroy_vectorEE10__completeB8ue170006Ev, symObjAddr: 0xB384, symBinAddr: 0x10000ED38, symSize: 0x1C }
  - { offsetInCU: 0x14FE2, offset: 0x14FE2, size: 0x8, addend: 0x0, symName: __ZNSt3__128__exception_guard_exceptionsINS_6vectorI3JobNS_9allocatorIS2_EEE16__destroy_vectorEED1B8ue170006Ev, symObjAddr: 0xB3A0, symBinAddr: 0x10000ED54, symSize: 0x2C }
  - { offsetInCU: 0x1500B, offset: 0x1500B, size: 0x8, addend: 0x0, symName: __ZNSt3__128__exception_guard_exceptionsINS_6vectorI3JobNS_9allocatorIS2_EEE16__destroy_vectorEEC1B8ue170006ES6_, symObjAddr: 0xB3CC, symBinAddr: 0x10000ED80, symSize: 0x34 }
  - { offsetInCU: 0x15042, offset: 0x15042, size: 0x8, addend: 0x0, symName: __ZNSt3__128__exception_guard_exceptionsINS_6vectorI3JobNS_9allocatorIS2_EEE16__destroy_vectorEEC2B8ue170006ES6_, symObjAddr: 0xB400, symBinAddr: 0x10000EDB4, symSize: 0x24 }
  - { offsetInCU: 0x15092, offset: 0x15092, size: 0x8, addend: 0x0, symName: __ZNSt3__14pairIP3JobS2_EC1B8ue170006ERKS2_S5_, symObjAddr: 0xB6AC, symBinAddr: 0x10000F060, symSize: 0x3C }
  - { offsetInCU: 0x150D7, offset: 0x150D7, size: 0x8, addend: 0x0, symName: __ZNSt3__14pairIP3JobS2_EC2B8ue170006ERKS2_S5_, symObjAddr: 0xB6E8, symBinAddr: 0x10000F09C, symSize: 0x34 }
  - { offsetInCU: 0x1511C, offset: 0x1511C, size: 0x8, addend: 0x0, symName: __ZNSt3__129_AllocatorDestroyRangeReverseINS_9allocatorI3JobEEPS2_EC1B8ue170006ERS3_RS4_S7_, symObjAddr: 0xB768, symBinAddr: 0x10000F11C, symSize: 0x44 }
  - { offsetInCU: 0x15172, offset: 0x15172, size: 0x8, addend: 0x0, symName: __ZNSt3__116allocator_traitsINS_9allocatorI3JobEEE9constructB8ue170006IS2_JRS2_EvEEvRS3_PT_DpOT0_, symObjAddr: 0xB7AC, symBinAddr: 0x10000F160, symSize: 0x34 }
  - { offsetInCU: 0x151C9, offset: 0x151C9, size: 0x8, addend: 0x0, symName: __ZNSt3__128__exception_guard_exceptionsINS_29_AllocatorDestroyRangeReverseINS_9allocatorI3JobEEPS3_EEE10__completeB8ue170006Ev, symObjAddr: 0xB7E0, symBinAddr: 0x10000F194, symSize: 0x1C }
  - { offsetInCU: 0x151EE, offset: 0x151EE, size: 0x8, addend: 0x0, symName: __ZNSt3__128__exception_guard_exceptionsINS_29_AllocatorDestroyRangeReverseINS_9allocatorI3JobEEPS3_EEED1B8ue170006Ev, symObjAddr: 0xB7FC, symBinAddr: 0x10000F1B0, symSize: 0x2C }
  - { offsetInCU: 0x15217, offset: 0x15217, size: 0x8, addend: 0x0, symName: __ZNSt3__128__exception_guard_exceptionsINS_29_AllocatorDestroyRangeReverseINS_9allocatorI3JobEEPS3_EEEC1B8ue170006ES6_, symObjAddr: 0xB828, symBinAddr: 0x10000F1DC, symSize: 0x34 }
  - { offsetInCU: 0x1524F, offset: 0x1524F, size: 0x8, addend: 0x0, symName: __ZNSt3__128__exception_guard_exceptionsINS_29_AllocatorDestroyRangeReverseINS_9allocatorI3JobEEPS3_EEEC2B8ue170006ES6_, symObjAddr: 0xB85C, symBinAddr: 0x10000F210, symSize: 0x30 }
  - { offsetInCU: 0x15287, offset: 0x15287, size: 0x8, addend: 0x0, symName: __ZNSt3__129_AllocatorDestroyRangeReverseINS_9allocatorI3JobEEPS2_EC2B8ue170006ERS3_RS4_S7_, symObjAddr: 0xB88C, symBinAddr: 0x10000F240, symSize: 0x38 }
  - { offsetInCU: 0x152DD, offset: 0x152DD, size: 0x8, addend: 0x0, symName: __ZNSt3__19allocatorI3JobE9constructB8ue170006IS1_JRS1_EEEvPT_DpOT0_, symObjAddr: 0xB8C4, symBinAddr: 0x10000F278, symSize: 0x30 }
  - { offsetInCU: 0x15332, offset: 0x15332, size: 0x8, addend: 0x0, symName: __ZNSt3__128__exception_guard_exceptionsINS_29_AllocatorDestroyRangeReverseINS_9allocatorI3JobEEPS3_EEED2B8ue170006Ev, symObjAddr: 0xB8F4, symBinAddr: 0x10000F2A8, symSize: 0x48 }
  - { offsetInCU: 0x1535B, offset: 0x1535B, size: 0x8, addend: 0x0, symName: __ZNKSt3__129_AllocatorDestroyRangeReverseINS_9allocatorI3JobEEPS2_EclB8ue170006Ev, symObjAddr: 0xB93C, symBinAddr: 0x10000F2F0, symSize: 0x68 }
  - { offsetInCU: 0x15380, offset: 0x15380, size: 0x8, addend: 0x0, symName: __ZNSt3__118__unwrap_iter_implIP3JobLb1EE8__unwrapB8ue170006ES2_, symObjAddr: 0xBA14, symBinAddr: 0x10000F3C8, symSize: 0x24 }
  - { offsetInCU: 0x153A3, offset: 0x153A3, size: 0x8, addend: 0x0, symName: __ZNSt3__118__unwrap_iter_implIP3JobLb1EE8__rewrapB8ue170006ES2_S2_, symObjAddr: 0xBA38, symBinAddr: 0x10000F3EC, symSize: 0x58 }
  - { offsetInCU: 0x153D4, offset: 0x153D4, size: 0x8, addend: 0x0, symName: __ZNSt3__128__exception_guard_exceptionsINS_6vectorI3JobNS_9allocatorIS2_EEE16__destroy_vectorEED2B8ue170006Ev, symObjAddr: 0xBA90, symBinAddr: 0x10000F444, symSize: 0x48 }
...
