---
triple:          'arm64-apple-darwin'
binary-path:     a.out
relocations:
  - { offsetInCU: 0x9A, offset: 0x9A, size: 0x8, addend: 0x0, symName: __ZNSt3__111__sift_downB7v160006INS_17_ClassicAlgPolicyERPFb5PointS2_ENS_11__wrap_iterIPS2_EEEEvT1_OT0_NS_15iterator_traitsIS9_E15difference_typeES9_, symObjAddr: 0x1328, symBinAddr: 0x100004468, symSize: 0x318 }
  - { offsetInCU: 0x369, offset: 0x369, size: 0x8, addend: 0x0, symName: __ZNSt3__117__floyd_sift_downB7v160006INS_17_ClassicAlgPolicyERPFb5PointS2_ENS_11__wrap_iterIPS2_EEEET1_S9_OT0_NS_15iterator_traitsIS9_E15difference_typeE, symObjAddr: 0x1968, symBinAddr: 0x100004AA8, symSize: 0x15C }
  - { offsetInCU: 0x401, offset: 0x401, size: 0x8, addend: 0x0, symName: __ZNSt3__111__introsortINS_17_ClassicAlgPolicyERPFb5PointS2_EPS2_EEvT1_S7_T0_NS_15iterator_traitsIS7_E15difference_typeE, symObjAddr: 0x1CB0, symBinAddr: 0x100004DF0, symSize: 0x8AC }
  - { offsetInCU: 0x561, offset: 0x561, size: 0x8, addend: 0x0, symName: __ZNSt3__118__insertion_sort_3B7v160006INS_17_ClassicAlgPolicyERPFb5PointS2_EPS2_EEvT1_S7_T0_, symObjAddr: 0x2690, symBinAddr: 0x1000057D0, symSize: 0x178 }
  - { offsetInCU: 0x634, offset: 0x634, size: 0x8, addend: 0x0, symName: __ZNSt3__111__sift_downB7v160006INS_17_ClassicAlgPolicyERPFb5PointS2_EPS2_EEvT1_OT0_NS_15iterator_traitsIS7_E15difference_typeES7_, symObjAddr: 0x31D8, symBinAddr: 0x100006318, symSize: 0x270 }
  - { offsetInCU: 0x6E1, offset: 0x6E1, size: 0x8, addend: 0x0, symName: __ZNSt3__117__floyd_sift_downB7v160006INS_17_ClassicAlgPolicyERPFb5PointS2_EPS2_EET1_S7_OT0_NS_15iterator_traitsIS7_E15difference_typeE, symObjAddr: 0x35CC, symBinAddr: 0x10000670C, symSize: 0x118 }
  - { offsetInCU: 0x779, offset: 0x779, size: 0x8, addend: 0x0, symName: __ZNSt3__127__insertion_sort_incompleteIRPFb5PointS1_EPS1_EEbT0_S6_T_, symObjAddr: 0x2AC0, symBinAddr: 0x100005C00, symSize: 0x360 }
  - { offsetInCU: 0x247F, offset: 0x247F, size: 0x8, addend: 0x0, symName: __ZNSt3__111__sift_downB7v160006INS_17_ClassicAlgPolicyERNS_6__lessI5PointS3_EENS_11__wrap_iterIPS3_EEEEvT1_OT0_NS_15iterator_traitsIS9_E15difference_typeES9_, symObjAddr: 0x65B4, symBinAddr: 0x1000096F4, symSize: 0x2D4 }
  - { offsetInCU: 0x252C, offset: 0x252C, size: 0x8, addend: 0x0, symName: __ZNSt3__117__floyd_sift_downB7v160006INS_17_ClassicAlgPolicyERNS_6__lessI5PointS3_EENS_11__wrap_iterIPS3_EEEET1_S9_OT0_NS_15iterator_traitsIS9_E15difference_typeE, symObjAddr: 0x6AE4, symBinAddr: 0x100009C24, symSize: 0x14C }
  - { offsetInCU: 0x25C4, offset: 0x25C4, size: 0x8, addend: 0x0, symName: __ZNSt3__111__introsortINS_17_ClassicAlgPolicyERNS_6__lessI5PointS3_EEPS3_EEvT1_S7_T0_NS_15iterator_traitsIS7_E15difference_typeE, symObjAddr: 0x6DA4, symBinAddr: 0x100009EE4, symSize: 0x6B8 }
  - { offsetInCU: 0x271F, offset: 0x271F, size: 0x8, addend: 0x0, symName: __ZNSt3__118__insertion_sort_3B7v160006INS_17_ClassicAlgPolicyERNS_6__lessI5PointS3_EEPS3_EEvT1_S7_T0_, symObjAddr: 0x7540, symBinAddr: 0x10000A680, symSize: 0x144 }
  - { offsetInCU: 0x27F2, offset: 0x27F2, size: 0x8, addend: 0x0, symName: __ZNSt3__111__sift_downB7v160006INS_17_ClassicAlgPolicyERNS_6__lessI5PointS3_EEPS3_EEvT1_OT0_NS_15iterator_traitsIS7_E15difference_typeES7_, symObjAddr: 0x7E84, symBinAddr: 0x10000AFC4, symSize: 0x20C }
  - { offsetInCU: 0x289F, offset: 0x289F, size: 0x8, addend: 0x0, symName: __ZNSt3__117__floyd_sift_downB7v160006INS_17_ClassicAlgPolicyERNS_6__lessI5PointS3_EEPS3_EET1_S7_OT0_NS_15iterator_traitsIS7_E15difference_typeE, symObjAddr: 0x8214, symBinAddr: 0x10000B354, symSize: 0x100 }
  - { offsetInCU: 0x2937, offset: 0x2937, size: 0x8, addend: 0x0, symName: __ZNSt3__127__insertion_sort_incompleteIRNS_6__lessI5PointS2_EEPS2_EEbT0_S6_T_, symObjAddr: 0x78B0, symBinAddr: 0x10000A9F0, symSize: 0x310 }
  - { offsetInCU: 0x3712, offset: 0x3712, size: 0x8, addend: 0x0, symName: __ZNSt3__14sortB7v160006INS_11__wrap_iterIP5PointEEPFbS2_S2_EEEvT_S7_T0_, symObjAddr: 0x42C, symBinAddr: 0x10000356C, symSize: 0x48 }
  - { offsetInCU: 0x376C, offset: 0x376C, size: 0x8, addend: 0x0, symName: __ZNSt3__14sortB7v160006INS_11__wrap_iterIP5PointEEEEvT_S5_, symObjAddr: 0x964, symBinAddr: 0x100003AA4, symSize: 0x3C }
  - { offsetInCU: 0x37AE, offset: 0x37AE, size: 0x8, addend: 0x0, symName: __ZNSt3__111__sort_implB7v160006INS_17_ClassicAlgPolicyENS_11__wrap_iterIP5PointEEPFbS3_S3_EEEvT0_S8_RT1_, symObjAddr: 0xD30, symBinAddr: 0x100003E70, symSize: 0xC8 }
  - { offsetInCU: 0x3855, offset: 0x3855, size: 0x8, addend: 0x0, symName: __ZNSt3__123__debug_randomize_rangeB7v160006INS_17_ClassicAlgPolicyENS_11__wrap_iterIP5PointEES5_EEvT0_T1_, symObjAddr: 0xDF8, symBinAddr: 0x100003F38, symSize: 0x14 }
  - { offsetInCU: 0x38A6, offset: 0x38A6, size: 0x8, addend: 0x0, symName: __ZNSt3__130__libcpp_is_constant_evaluatedB7v160006Ev, symObjAddr: 0xE0C, symBinAddr: 0x100003F4C, symSize: 0xC }
  - { offsetInCU: 0x38C3, offset: 0x38C3, size: 0x8, addend: 0x0, symName: __ZNSt3__114__partial_sortB7v160006INS_17_ClassicAlgPolicyEPFb5PointS2_ENS_11__wrap_iterIPS2_EES7_EET1_S8_S8_T2_RT0_, symObjAddr: 0xE18, symBinAddr: 0x100003F58, symSize: 0xD8 }
  - { offsetInCU: 0x394B, offset: 0x394B, size: 0x8, addend: 0x0, symName: __ZNSt3__16__sortIRPFb5PointS1_EPS1_EEvT0_S6_T_, symObjAddr: 0xEF0, symBinAddr: 0x100004030, symSize: 0x68 }
  - { offsetInCU: 0x39DB, offset: 0x39DB, size: 0x8, addend: 0x0, symName: __ZNSt3__113__unwrap_iterB7v160006INS_11__wrap_iterIP5PointEENS_18__unwrap_iter_implIS4_Lb1EEELi0EEEDTclsrT0_8__unwrapclsr3stdE7declvalIT_EEEES8_, symObjAddr: 0xF58, symBinAddr: 0x100004098, symSize: 0x2C }
  - { offsetInCU: 0x3A1F, offset: 0x3A1F, size: 0x8, addend: 0x0, symName: __ZNSt3__1eqB7v160006IP5PointEEbRKNS_11__wrap_iterIT_EES7_, symObjAddr: 0xF84, symBinAddr: 0x1000040C4, symSize: 0x48 }
  - { offsetInCU: 0x3BAD, offset: 0x3BAD, size: 0x8, addend: 0x0, symName: __ZNSt3__119__partial_sort_implB7v160006INS_17_ClassicAlgPolicyERPFb5PointS2_ENS_11__wrap_iterIPS2_EES8_EET1_S9_S9_T2_OT0_, symObjAddr: 0xFEC, symBinAddr: 0x10000412C, symSize: 0x178 }
  - { offsetInCU: 0x3C44, offset: 0x3C44, size: 0x8, addend: 0x0, symName: __ZNSt3__111__make_heapB7v160006INS_17_ClassicAlgPolicyERPFb5PointS2_ENS_11__wrap_iterIPS2_EEEEvT1_S9_OT0_, symObjAddr: 0x117C, symBinAddr: 0x1000042BC, symSize: 0xD4 }
  - { offsetInCU: 0x3CE6, offset: 0x3CE6, size: 0x8, addend: 0x0, symName: __ZNSt3__1miB7v160006IP5PointS2_EENS_11__wrap_iterIT_E15difference_typeERKS5_RKNS3_IT0_EE, symObjAddr: 0x1250, symBinAddr: 0x100004390, symSize: 0x48 }
  - { offsetInCU: 0x3D32, offset: 0x3D32, size: 0x8, addend: 0x0, symName: __ZNSt3__1neB7v160006IP5PointEEbRKNS_11__wrap_iterIT_EES7_, symObjAddr: 0x1298, symBinAddr: 0x1000043D8, symSize: 0x34 }
  - { offsetInCU: 0x3D75, offset: 0x3D75, size: 0x8, addend: 0x0, symName: __ZNSt3__111__sort_heapB7v160006INS_17_ClassicAlgPolicyERPFb5PointS2_ENS_11__wrap_iterIPS2_EEEEvT1_S9_OT0_, symObjAddr: 0x1660, symBinAddr: 0x1000047A0, symSize: 0x98 }
  - { offsetInCU: 0x3E09, offset: 0x3E09, size: 0x8, addend: 0x0, symName: __ZNSt3__19iter_swapB7v160006INS_11__wrap_iterIP5PointEES4_EEvT_T0_, symObjAddr: 0x175C, symBinAddr: 0x10000489C, symSize: 0x50 }
  - { offsetInCU: 0x3E51, offset: 0x3E51, size: 0x8, addend: 0x0, symName: __ZNSt3__14swapB7v160006I5PointEEvRT_S3_, symObjAddr: 0x17AC, symBinAddr: 0x1000048EC, symSize: 0x3C }
  - { offsetInCU: 0x3EC6, offset: 0x3EC6, size: 0x8, addend: 0x0, symName: __ZNSt3__110__pop_heapB7v160006INS_17_ClassicAlgPolicyEPFb5PointS2_ENS_11__wrap_iterIPS2_EEEEvT1_S8_RT0_NS_15iterator_traitsIS8_E15difference_typeE, symObjAddr: 0x1814, symBinAddr: 0x100004954, symSize: 0x134 }
  - { offsetInCU: 0x3F76, offset: 0x3F76, size: 0x8, addend: 0x0, symName: __ZNSt3__19__sift_upB7v160006INS_17_ClassicAlgPolicyERPFb5PointS2_ENS_11__wrap_iterIPS2_EEEEvT1_S9_OT0_NS_15iterator_traitsIS9_E15difference_typeE, symObjAddr: 0x1AC4, symBinAddr: 0x100004C04, symSize: 0x184 }
  - { offsetInCU: 0x4026, offset: 0x4026, size: 0x8, addend: 0x0, symName: __ZNSt3__17__log2iB7v160006IlEET_S1_, symObjAddr: 0x1C48, symBinAddr: 0x100004D88, symSize: 0x54 }
  - { offsetInCU: 0x4090, offset: 0x4090, size: 0x8, addend: 0x0, symName: __ZNSt3__112__libcpp_clzB7v160006Em, symObjAddr: 0x2574, symBinAddr: 0x1000056B4, symSize: 0x1C }
  - { offsetInCU: 0x40BC, offset: 0x40BC, size: 0x8, addend: 0x0, symName: __ZNSt3__124__sort3_maybe_branchlessB7v160006INS_17_ClassicAlgPolicyERPFb5PointS2_EPS2_EENS_9enable_ifIXntsr21__use_branchless_sortIT0_T1_EE5valueEvE4typeES9_S9_S9_S8_, symObjAddr: 0x25C4, symBinAddr: 0x100005704, symSize: 0x3C }
  - { offsetInCU: 0x412D, offset: 0x412D, size: 0x8, addend: 0x0, symName: __ZNSt3__124__sort4_maybe_branchlessB7v160006INS_17_ClassicAlgPolicyERPFb5PointS2_EPS2_EENS_9enable_ifIXntsr21__use_branchless_sortIT0_T1_EE5valueEvE4typeES9_S9_S9_S9_S8_, symObjAddr: 0x2600, symBinAddr: 0x100005740, symSize: 0x44 }
  - { offsetInCU: 0x41B2, offset: 0x41B2, size: 0x8, addend: 0x0, symName: __ZNSt3__124__sort5_maybe_branchlessB7v160006INS_17_ClassicAlgPolicyERPFb5PointS2_EPS2_EENS_9enable_ifIXntsr21__use_branchless_sortIT0_T1_EE5valueEvE4typeES9_S9_S9_S9_S9_S8_, symObjAddr: 0x2644, symBinAddr: 0x100005784, symSize: 0x4C }
  - { offsetInCU: 0x4246, offset: 0x4246, size: 0x8, addend: 0x0, symName: __ZNSt3__114__partial_sortB7v160006INS_17_ClassicAlgPolicyERPFb5PointS2_EPS2_S6_EET1_S7_S7_T2_RT0_, symObjAddr: 0x2808, symBinAddr: 0x100005948, symSize: 0x94 }
  - { offsetInCU: 0x42CE, offset: 0x42CE, size: 0x8, addend: 0x0, symName: __ZNSt3__119__sort5_wrap_policyB7v160006INS_17_ClassicAlgPolicyERPFb5PointS2_EPS2_EEjT1_S7_S7_S7_S7_T0_, symObjAddr: 0x289C, symBinAddr: 0x1000059DC, symSize: 0x54 }
  - { offsetInCU: 0x4374, offset: 0x4374, size: 0x8, addend: 0x0, symName: __ZNSt3__17__sort3B7v160006INS_17_ClassicAlgPolicyERPFb5PointS2_EPS2_EEjT1_S7_S7_T0_, symObjAddr: 0x28F0, symBinAddr: 0x100005A30, symSize: 0x1D0 }
  - { offsetInCU: 0x43F3, offset: 0x43F3, size: 0x8, addend: 0x0, symName: __ZNSt3__19iter_swapB7v160006IP5PointS2_EEvT_T0_, symObjAddr: 0x2E38, symBinAddr: 0x100005F78, symSize: 0x2C }
  - { offsetInCU: 0x443B, offset: 0x443B, size: 0x8, addend: 0x0, symName: __ZNSt3__17__sort4B7v160006INS_17_ClassicAlgPolicyERPFb5PointS2_EPS2_EEjT1_S7_S7_S7_T0_, symObjAddr: 0x2E64, symBinAddr: 0x100005FA4, symSize: 0x138 }
  - { offsetInCU: 0x44C8, offset: 0x44C8, size: 0x8, addend: 0x0, symName: __ZNSt3__123__debug_randomize_rangeB7v160006INS_17_ClassicAlgPolicyEP5PointS3_EEvT0_T1_, symObjAddr: 0x2FE0, symBinAddr: 0x100006120, symSize: 0x14 }
  - { offsetInCU: 0x4519, offset: 0x4519, size: 0x8, addend: 0x0, symName: __ZNSt3__119__partial_sort_implB7v160006INS_17_ClassicAlgPolicyERPFb5PointS2_EPS2_S6_EET1_S7_S7_T2_OT0_, symObjAddr: 0x2FF4, symBinAddr: 0x100006134, symSize: 0x12C }
  - { offsetInCU: 0x45AF, offset: 0x45AF, size: 0x8, addend: 0x0, symName: __ZNSt3__111__make_heapB7v160006INS_17_ClassicAlgPolicyERPFb5PointS2_EPS2_EEvT1_S7_OT0_, symObjAddr: 0x3120, symBinAddr: 0x100006260, symSize: 0xB8 }
  - { offsetInCU: 0x4651, offset: 0x4651, size: 0x8, addend: 0x0, symName: __ZNSt3__111__sort_heapB7v160006INS_17_ClassicAlgPolicyERPFb5PointS2_EPS2_EEvT1_S7_OT0_, symObjAddr: 0x3448, symBinAddr: 0x100006588, symSize: 0x90 }
  - { offsetInCU: 0x46E5, offset: 0x46E5, size: 0x8, addend: 0x0, symName: __ZNSt3__110__pop_heapB7v160006INS_17_ClassicAlgPolicyEPFb5PointS2_EPS2_EEvT1_S6_RT0_NS_15iterator_traitsIS6_E15difference_typeE, symObjAddr: 0x34D8, symBinAddr: 0x100006618, symSize: 0xF4 }
  - { offsetInCU: 0x4795, offset: 0x4795, size: 0x8, addend: 0x0, symName: __ZNSt3__19__sift_upB7v160006INS_17_ClassicAlgPolicyERPFb5PointS2_EPS2_EEvT1_S7_OT0_NS_15iterator_traitsIS7_E15difference_typeE, symObjAddr: 0x36E4, symBinAddr: 0x100006824, symSize: 0x150 }
  - { offsetInCU: 0x4845, offset: 0x4845, size: 0x8, addend: 0x0, symName: __ZNSt3__17__sort5IRPFb5PointS1_EPS1_EEjT0_S6_S6_S6_S6_T_, symObjAddr: 0x3834, symBinAddr: 0x100006974, symSize: 0x19C }
  - { offsetInCU: 0x4943, offset: 0x4943, size: 0x8, addend: 0x0, symName: __ZNSt3__112__to_addressB7v160006INS_11__wrap_iterIP5PointEEvEENS_5decayIDTclsr19__to_address_helperIT_EE6__callclsr3stdE7declvalIRKS6_EEEEE4typeES8_, symObjAddr: 0x39F8, symBinAddr: 0x100006B38, symSize: 0x24 }
  - { offsetInCU: 0x4A22, offset: 0x4A22, size: 0x8, addend: 0x0, symName: __ZNSt3__112__to_addressB7v160006I5PointEEPT_S3_, symObjAddr: 0x3A78, symBinAddr: 0x100006BB8, symSize: 0x14 }
  - { offsetInCU: 0x4A57, offset: 0x4A57, size: 0x8, addend: 0x0, symName: __ZNSt3__122__make_exception_guardB7v160006INS_6vectorI5PointNS_9allocatorIS2_EEE16__destroy_vectorEEENS_28__exception_guard_exceptionsIT_EES8_, symObjAddr: 0x3C1C, symBinAddr: 0x100006D5C, symSize: 0x40 }
  - { offsetInCU: 0x4A8C, offset: 0x4A8C, size: 0x8, addend: 0x0, symName: __ZNSt3__119__debug_db_insert_cB7v160006INS_6vectorI5PointNS_9allocatorIS2_EEEEEEvPT_, symObjAddr: 0x3C90, symBinAddr: 0x100006DD0, symSize: 0x10 }
  - { offsetInCU: 0x4ABD, offset: 0x4ABD, size: 0x8, addend: 0x0, symName: __ZNSt3__119__allocate_at_leastB7v160006INS_9allocatorI5PointEEEENS_19__allocation_resultINS_16allocator_traitsIT_E7pointerEEERS6_m, symObjAddr: 0x3FE0, symBinAddr: 0x100007120, symSize: 0x40 }
  - { offsetInCU: 0x4B00, offset: 0x4B00, size: 0x8, addend: 0x0, symName: __ZNSt3__13minB7v160006ImEERKT_S3_S3_, symObjAddr: 0x411C, symBinAddr: 0x10000725C, symSize: 0x2C }
  - { offsetInCU: 0x4D44, offset: 0x4D44, size: 0x8, addend: 0x0, symName: __ZNSt3__13minB7v160006ImNS_6__lessImmEEEERKT_S5_S5_T0_, symObjAddr: 0x4180, symBinAddr: 0x1000072C0, symSize: 0x54 }
  - { offsetInCU: 0x4DD9, offset: 0x4DD9, size: 0x8, addend: 0x0, symName: __ZNSt3__120__throw_length_errorB7v160006EPKc, symObjAddr: 0x4224, symBinAddr: 0x100007364, symSize: 0x64 }
  - { offsetInCU: 0x4E01, offset: 0x4E01, size: 0x8, addend: 0x0, symName: __ZNSt3__117__libcpp_allocateB7v160006Emm, symObjAddr: 0x43C0, symBinAddr: 0x100007500, symSize: 0x28 }
  - { offsetInCU: 0x4E3E, offset: 0x4E3E, size: 0x8, addend: 0x0, symName: __ZNSt3__121__libcpp_operator_newB7v160006IJmEEEPvDpT_, symObjAddr: 0x43E8, symBinAddr: 0x100007528, symSize: 0x24 }
  - { offsetInCU: 0x4E77, offset: 0x4E77, size: 0x8, addend: 0x0, symName: __ZNSt3__130__uninitialized_allocator_copyB7v160006INS_9allocatorI5PointEEPS2_S4_S4_EET2_RT_T0_T1_S5_, symObjAddr: 0x45A0, symBinAddr: 0x1000076E0, symSize: 0xFC }
  - { offsetInCU: 0x4F15, offset: 0x4F15, size: 0x8, addend: 0x0, symName: __ZNSt3__122__make_exception_guardB7v160006INS_29_AllocatorDestroyRangeReverseINS_9allocatorI5PointEEPS3_EEEENS_28__exception_guard_exceptionsIT_EES8_, symObjAddr: 0x470C, symBinAddr: 0x10000784C, symSize: 0x4C }
  - { offsetInCU: 0x4F4B, offset: 0x4F4B, size: 0x8, addend: 0x0, symName: __ZNSt3__119__allocator_destroyB7v160006INS_9allocatorI5PointEENS_16reverse_iteratorIPS2_EES6_EEvRT_T0_T1_, symObjAddr: 0x498C, symBinAddr: 0x100007ACC, symSize: 0x70 }
  - { offsetInCU: 0x4FAE, offset: 0x4FAE, size: 0x8, addend: 0x0, symName: __ZNSt3__1neB7v160006IP5PointS2_EEbRKNS_16reverse_iteratorIT_EERKNS3_IT0_EE, symObjAddr: 0x4A30, symBinAddr: 0x100007B70, symSize: 0x48 }
  - { offsetInCU: 0x4FFA, offset: 0x4FFA, size: 0x8, addend: 0x0, symName: __ZNSt3__112__to_addressB7v160006INS_16reverse_iteratorIP5PointEEvEENS_5decayIDTclsr19__to_address_helperIT_EE6__callclsr3stdE7declvalIRKS6_EEEEE4typeES8_, symObjAddr: 0x4AA4, symBinAddr: 0x100007BE4, symSize: 0x24 }
  - { offsetInCU: 0x5059, offset: 0x5059, size: 0x8, addend: 0x0, symName: __ZNSt3__118__debug_db_erase_cB7v160006INS_6vectorI5PointNS_9allocatorIS2_EEEEEEvPT_, symObjAddr: 0x4D90, symBinAddr: 0x100007ED0, symSize: 0x10 }
  - { offsetInCU: 0x508A, offset: 0x508A, size: 0x8, addend: 0x0, symName: __ZNSt3__119__libcpp_deallocateB7v160006EPvmm, symObjAddr: 0x4F0C, symBinAddr: 0x10000804C, symSize: 0x30 }
  - { offsetInCU: 0x50D2, offset: 0x50D2, size: 0x8, addend: 0x0, symName: __ZNSt3__127__do_deallocate_handle_sizeB7v160006IJEEEvPvmDpT_, symObjAddr: 0x4F3C, symBinAddr: 0x10000807C, symSize: 0x28 }
  - { offsetInCU: 0x5110, offset: 0x5110, size: 0x8, addend: 0x0, symName: __ZNSt3__124__libcpp_operator_deleteB7v160006IJPvEEEvDpT_, symObjAddr: 0x4F64, symBinAddr: 0x1000080A4, symSize: 0x24 }
  - { offsetInCU: 0x5145, offset: 0x5145, size: 0x8, addend: 0x0, symName: __ZNSt3__13maxB7v160006ImEERKT_S3_S3_, symObjAddr: 0x5508, symBinAddr: 0x100008648, symSize: 0x2C }
  - { offsetInCU: 0x5188, offset: 0x5188, size: 0x8, addend: 0x0, symName: __ZNSt3__13maxB7v160006ImNS_6__lessImmEEEERKT_S5_S5_T0_, symObjAddr: 0x5534, symBinAddr: 0x100008674, symSize: 0x54 }
  - { offsetInCU: 0x51E2, offset: 0x51E2, size: 0x8, addend: 0x0, symName: __ZNSt3__142__uninitialized_allocator_move_if_noexceptB7v160006INS_9allocatorI5PointEENS_16reverse_iteratorIPS2_EES6_S2_vEET1_RT_T0_SA_S7_, symObjAddr: 0x57B4, symBinAddr: 0x1000088F4, symSize: 0xE8 }
  - { offsetInCU: 0x525F, offset: 0x525F, size: 0x8, addend: 0x0, symName: __ZNSt3__14swapB7v160006IP5PointEEvRT_S4_, symObjAddr: 0x589C, symBinAddr: 0x1000089DC, symSize: 0x3C }
  - { offsetInCU: 0x52B0, offset: 0x52B0, size: 0x8, addend: 0x0, symName: __ZNSt3__125__debug_db_invalidate_allB7v160006INS_6vectorI5PointNS_9allocatorIS2_EEEEEEvPT_, symObjAddr: 0x58D8, symBinAddr: 0x100008A18, symSize: 0x10 }
  - { offsetInCU: 0x5306, offset: 0x5306, size: 0x8, addend: 0x0, symName: __ZNSt3__114__construct_atB7v160006I5PointJS1_EPS1_EEPT_S4_DpOT0_, symObjAddr: 0x58E8, symBinAddr: 0x100008A28, symSize: 0x2C }
  - { offsetInCU: 0x5376, offset: 0x5376, size: 0x8, addend: 0x0, symName: __ZNSt3__14moveB7v160006INS_16reverse_iteratorIP5PointEES4_EET0_T_S6_S5_, symObjAddr: 0x5914, symBinAddr: 0x100008A54, symSize: 0x78 }
  - { offsetInCU: 0x53D0, offset: 0x53D0, size: 0x8, addend: 0x0, symName: __ZNSt3__16__moveB7v160006INS_17_ClassicAlgPolicyENS_16reverse_iteratorIP5PointEES5_S5_EENS_4pairIT0_T2_EES7_T1_S8_, symObjAddr: 0x598C, symBinAddr: 0x100008ACC, symSize: 0x64 }
  - { offsetInCU: 0x543C, offset: 0x543C, size: 0x8, addend: 0x0, symName: __ZNSt3__123__dispatch_copy_or_moveB7v160006INS_17_ClassicAlgPolicyENS_11__move_loopIS1_EENS_14__move_trivialENS_16reverse_iteratorIP5PointEES8_S8_EENS_4pairIT2_T4_EESA_T3_SB_, symObjAddr: 0x59F0, symBinAddr: 0x100008B30, symSize: 0x7C }
  - { offsetInCU: 0x54BA, offset: 0x54BA, size: 0x8, addend: 0x0, symName: __ZNSt3__121__unwrap_and_dispatchB7v160006INS_10__overloadINS_11__move_loopINS_17_ClassicAlgPolicyEEENS_14__move_trivialEEENS_16reverse_iteratorIP5PointEESA_SA_Li0EEENS_4pairIT0_T2_EESC_T1_SD_, symObjAddr: 0x5A6C, symBinAddr: 0x100008BAC, symSize: 0x12C }
  - { offsetInCU: 0x554A, offset: 0x554A, size: 0x8, addend: 0x0, symName: __ZNSt3__114__unwrap_rangeB7v160006INS_16reverse_iteratorIP5PointEES4_EENS_4pairIT0_S6_EET_S8_, symObjAddr: 0x5B98, symBinAddr: 0x100008CD8, symSize: 0x84 }
  - { offsetInCU: 0x5695, offset: 0x5695, size: 0x8, addend: 0x0, symName: __ZNSt3__113__unwrap_iterB7v160006INS_16reverse_iteratorIP5PointEENS_18__unwrap_iter_implIS4_Lb0EEELi0EEEDTclsrT0_8__unwrapclsr3stdE7declvalIT_EEEES8_, symObjAddr: 0x5CBC, symBinAddr: 0x100008DFC, symSize: 0x44 }
  - { offsetInCU: 0x56D9, offset: 0x56D9, size: 0x8, addend: 0x0, symName: __ZNSt3__19make_pairB7v160006INS_16reverse_iteratorIP5PointEES4_EENS_4pairINS_18__unwrap_ref_decayIT_E4typeENS6_IT0_E4typeEEEOS7_OSA_, symObjAddr: 0x5D00, symBinAddr: 0x100008E40, symSize: 0x38 }
  - { offsetInCU: 0x5728, offset: 0x5728, size: 0x8, addend: 0x0, symName: __ZNSt3__114__rewrap_rangeB7v160006INS_16reverse_iteratorIP5PointEES4_EET_S5_T0_, symObjAddr: 0x5D38, symBinAddr: 0x100008E78, symSize: 0x5C }
  - { offsetInCU: 0x5774, offset: 0x5774, size: 0x8, addend: 0x0, symName: __ZNSt3__113__rewrap_iterB7v160006INS_16reverse_iteratorIP5PointEES4_NS_18__unwrap_iter_implIS4_Lb0EEEEET_S7_T0_, symObjAddr: 0x5D94, symBinAddr: 0x100008ED4, symSize: 0x88 }
  - { offsetInCU: 0x5811, offset: 0x5811, size: 0x8, addend: 0x0, symName: __ZNSt3__14sortB7v160006INS_11__wrap_iterIP5PointEENS_6__lessIS2_S2_EEEEvT_S7_T0_, symObjAddr: 0x60FC, symBinAddr: 0x10000923C, symSize: 0x40 }
  - { offsetInCU: 0x586B, offset: 0x586B, size: 0x8, addend: 0x0, symName: __ZNSt3__111__sort_implB7v160006INS_17_ClassicAlgPolicyENS_11__wrap_iterIP5PointEENS_6__lessIS3_S3_EEEEvT0_S8_RT1_, symObjAddr: 0x613C, symBinAddr: 0x10000927C, symSize: 0xC8 }
  - { offsetInCU: 0x5912, offset: 0x5912, size: 0x8, addend: 0x0, symName: __ZNSt3__114__partial_sortB7v160006INS_17_ClassicAlgPolicyENS_6__lessI5PointS3_EENS_11__wrap_iterIPS3_EES7_EET1_S8_S8_T2_RT0_, symObjAddr: 0x6204, symBinAddr: 0x100009344, symSize: 0xD8 }
  - { offsetInCU: 0x599A, offset: 0x599A, size: 0x8, addend: 0x0, symName: __ZNSt3__16__sortIRNS_6__lessI5PointS2_EEPS2_EEvT0_S6_T_, symObjAddr: 0x62DC, symBinAddr: 0x10000941C, symSize: 0x68 }
  - { offsetInCU: 0x5A2A, offset: 0x5A2A, size: 0x8, addend: 0x0, symName: __ZNSt3__119__partial_sort_implB7v160006INS_17_ClassicAlgPolicyERNS_6__lessI5PointS3_EENS_11__wrap_iterIPS3_EES8_EET1_S9_S9_T2_OT0_, symObjAddr: 0x6344, symBinAddr: 0x100009484, symSize: 0x168 }
  - { offsetInCU: 0x5AC1, offset: 0x5AC1, size: 0x8, addend: 0x0, symName: __ZNSt3__111__make_heapB7v160006INS_17_ClassicAlgPolicyERNS_6__lessI5PointS3_EENS_11__wrap_iterIPS3_EEEEvT1_S9_OT0_, symObjAddr: 0x64AC, symBinAddr: 0x1000095EC, symSize: 0xD4 }
  - { offsetInCU: 0x5B9E, offset: 0x5B9E, size: 0x8, addend: 0x0, symName: __ZNSt3__111__sort_heapB7v160006INS_17_ClassicAlgPolicyERNS_6__lessI5PointS3_EENS_11__wrap_iterIPS3_EEEEvT1_S9_OT0_, symObjAddr: 0x6888, symBinAddr: 0x1000099C8, symSize: 0x98 }
  - { offsetInCU: 0x5C32, offset: 0x5C32, size: 0x8, addend: 0x0, symName: __ZNSt3__110__pop_heapB7v160006INS_17_ClassicAlgPolicyENS_6__lessI5PointS3_EENS_11__wrap_iterIPS3_EEEEvT1_S8_RT0_NS_15iterator_traitsIS8_E15difference_typeE, symObjAddr: 0x69B0, symBinAddr: 0x100009AF0, symSize: 0x134 }
  - { offsetInCU: 0x5CE2, offset: 0x5CE2, size: 0x8, addend: 0x0, symName: __ZNSt3__19__sift_upB7v160006INS_17_ClassicAlgPolicyERNS_6__lessI5PointS3_EENS_11__wrap_iterIPS3_EEEEvT1_S9_OT0_NS_15iterator_traitsIS9_E15difference_typeE, symObjAddr: 0x6C30, symBinAddr: 0x100009D70, symSize: 0x160 }
  - { offsetInCU: 0x5DC5, offset: 0x5DC5, size: 0x8, addend: 0x0, symName: __ZNSt3__124__sort3_maybe_branchlessB7v160006INS_17_ClassicAlgPolicyERNS_6__lessI5PointS3_EEPS3_EENS_9enable_ifIXntsr21__use_branchless_sortIT0_T1_EE5valueEvE4typeES9_S9_S9_S8_, symObjAddr: 0x7474, symBinAddr: 0x10000A5B4, symSize: 0x3C }
  - { offsetInCU: 0x5E36, offset: 0x5E36, size: 0x8, addend: 0x0, symName: __ZNSt3__124__sort4_maybe_branchlessB7v160006INS_17_ClassicAlgPolicyERNS_6__lessI5PointS3_EEPS3_EENS_9enable_ifIXntsr21__use_branchless_sortIT0_T1_EE5valueEvE4typeES9_S9_S9_S9_S8_, symObjAddr: 0x74B0, symBinAddr: 0x10000A5F0, symSize: 0x44 }
  - { offsetInCU: 0x5EBB, offset: 0x5EBB, size: 0x8, addend: 0x0, symName: __ZNSt3__124__sort5_maybe_branchlessB7v160006INS_17_ClassicAlgPolicyERNS_6__lessI5PointS3_EEPS3_EENS_9enable_ifIXntsr21__use_branchless_sortIT0_T1_EE5valueEvE4typeES9_S9_S9_S9_S9_S8_, symObjAddr: 0x74F4, symBinAddr: 0x10000A634, symSize: 0x4C }
  - { offsetInCU: 0x5F4F, offset: 0x5F4F, size: 0x8, addend: 0x0, symName: __ZNSt3__114__partial_sortB7v160006INS_17_ClassicAlgPolicyERNS_6__lessI5PointS3_EEPS3_S6_EET1_S7_S7_T2_RT0_, symObjAddr: 0x7684, symBinAddr: 0x10000A7C4, symSize: 0x94 }
  - { offsetInCU: 0x5FD7, offset: 0x5FD7, size: 0x8, addend: 0x0, symName: __ZNSt3__119__sort5_wrap_policyB7v160006INS_17_ClassicAlgPolicyERNS_6__lessI5PointS3_EEPS3_EEjT1_S7_S7_S7_S7_T0_, symObjAddr: 0x7718, symBinAddr: 0x10000A858, symSize: 0x54 }
  - { offsetInCU: 0x607D, offset: 0x607D, size: 0x8, addend: 0x0, symName: __ZNSt3__17__sort3B7v160006INS_17_ClassicAlgPolicyERNS_6__lessI5PointS3_EEPS3_EEjT1_S7_S7_T0_, symObjAddr: 0x776C, symBinAddr: 0x10000A8AC, symSize: 0x144 }
  - { offsetInCU: 0x60FC, offset: 0x60FC, size: 0x8, addend: 0x0, symName: __ZNSt3__17__sort4B7v160006INS_17_ClassicAlgPolicyERNS_6__lessI5PointS3_EEPS3_EEjT1_S7_S7_S7_T0_, symObjAddr: 0x7BD8, symBinAddr: 0x10000AD18, symSize: 0xE4 }
  - { offsetInCU: 0x6189, offset: 0x6189, size: 0x8, addend: 0x0, symName: __ZNSt3__119__partial_sort_implB7v160006INS_17_ClassicAlgPolicyERNS_6__lessI5PointS3_EEPS3_S6_EET1_S7_S7_T2_OT0_, symObjAddr: 0x7CBC, symBinAddr: 0x10000ADFC, symSize: 0x110 }
  - { offsetInCU: 0x621F, offset: 0x621F, size: 0x8, addend: 0x0, symName: __ZNSt3__111__make_heapB7v160006INS_17_ClassicAlgPolicyERNS_6__lessI5PointS3_EEPS3_EEvT1_S7_OT0_, symObjAddr: 0x7DCC, symBinAddr: 0x10000AF0C, symSize: 0xB8 }
  - { offsetInCU: 0x62C1, offset: 0x62C1, size: 0x8, addend: 0x0, symName: __ZNSt3__111__sort_heapB7v160006INS_17_ClassicAlgPolicyERNS_6__lessI5PointS3_EEPS3_EEvT1_S7_OT0_, symObjAddr: 0x8090, symBinAddr: 0x10000B1D0, symSize: 0x90 }
  - { offsetInCU: 0x6355, offset: 0x6355, size: 0x8, addend: 0x0, symName: __ZNSt3__110__pop_heapB7v160006INS_17_ClassicAlgPolicyENS_6__lessI5PointS3_EEPS3_EEvT1_S6_RT0_NS_15iterator_traitsIS6_E15difference_typeE, symObjAddr: 0x8120, symBinAddr: 0x10000B260, symSize: 0xF4 }
  - { offsetInCU: 0x6405, offset: 0x6405, size: 0x8, addend: 0x0, symName: __ZNSt3__19__sift_upB7v160006INS_17_ClassicAlgPolicyERNS_6__lessI5PointS3_EEPS3_EEvT1_S7_OT0_NS_15iterator_traitsIS7_E15difference_typeE, symObjAddr: 0x8314, symBinAddr: 0x10000B454, symSize: 0x11C }
  - { offsetInCU: 0x64B5, offset: 0x64B5, size: 0x8, addend: 0x0, symName: __ZNSt3__17__sort5IRNS_6__lessI5PointS2_EEPS2_EEjT0_S6_S6_S6_S6_T_, symObjAddr: 0x8430, symBinAddr: 0x10000B570, symSize: 0x12C }
  - { offsetInCU: 0x6560, offset: 0x6560, size: 0x8, addend: 0x0, symName: __ZNSt3__115__debug_db_swapB7v160006INS_6vectorI5PointNS_9allocatorIS2_EEEEEEvPT_S7_, symObjAddr: 0x86B8, symBinAddr: 0x10000B7F8, symSize: 0x14 }
  - { offsetInCU: 0x684B, offset: 0x684B, size: 0x8, addend: 0x0, symName: __ZSt28__throw_bad_array_new_lengthB7v160006v, symObjAddr: 0x438C, symBinAddr: 0x1000074CC, symSize: 0x34 }
  - { offsetInCU: 0x6B5D, offset: 0x6B5D, size: 0x8, addend: 0x0, symName: __ZNSt3__16vectorI5PointNS_9allocatorIS1_EEE26__swap_out_circular_bufferERNS_14__split_bufferIS1_RS3_EE, symObjAddr: 0x53C4, symBinAddr: 0x100008504, symSize: 0x118 }
  - { offsetInCU: 0x8CB2, offset: 0x8CB2, size: 0x8, addend: 0x0, symName: __Z3cmp5PointS_, symObjAddr: 0x0, symBinAddr: 0x100003140, symSize: 0x28 }
  - { offsetInCU: 0x8CEC, offset: 0x8CEC, size: 0x8, addend: 0x0, symName: __Z4dist5PointS_, symObjAddr: 0x28, symBinAddr: 0x100003168, symSize: 0x64 }
  - { offsetInCU: 0x8D26, offset: 0x8D26, size: 0x8, addend: 0x0, symName: __Z4sqrtB7v160006IiENSt3__19enable_ifIXsr3std11is_integralIT_EE5valueEdE4typeES2_, symObjAddr: 0x8C, symBinAddr: 0x1000031CC, symSize: 0x24 }
  - { offsetInCU: 0x8D5D, offset: 0x8D5D, size: 0x8, addend: 0x0, symName: __Z10bruteForceNSt3__16vectorI5PointNS_9allocatorIS1_EEEEii, symObjAddr: 0xB0, symBinAddr: 0x1000031F0, symSize: 0x158 }
  - { offsetInCU: 0x8E08, offset: 0x8E08, size: 0x8, addend: 0x0, symName: __ZNSt3__16vectorI5PointNS_9allocatorIS1_EEEixB7v160006Em, symObjAddr: 0x208, symBinAddr: 0x100003348, symSize: 0x24 }
  - { offsetInCU: 0x8E3D, offset: 0x8E3D, size: 0x8, addend: 0x0, symName: __Z3minff, symObjAddr: 0x22C, symBinAddr: 0x10000336C, symSize: 0x48 }
  - { offsetInCU: 0x8E77, offset: 0x8E77, size: 0x8, addend: 0x0, symName: __Z8minPointNSt3__16vectorI5PointNS_9allocatorIS1_EEEEif, symObjAddr: 0x274, symBinAddr: 0x1000033B4, symSize: 0x1B8 }
  - { offsetInCU: 0x8EF8, offset: 0x8EF8, size: 0x8, addend: 0x0, symName: __ZNSt3__16vectorI5PointNS_9allocatorIS1_EEE5beginB7v160006Ev, symObjAddr: 0x474, symBinAddr: 0x1000035B4, symSize: 0x30 }
  - { offsetInCU: 0x8F1E, offset: 0x8F1E, size: 0x8, addend: 0x0, symName: __ZNSt3__16vectorI5PointNS_9allocatorIS1_EEE3endB7v160006Ev, symObjAddr: 0x4A4, symBinAddr: 0x1000035E4, symSize: 0x30 }
  - { offsetInCU: 0x8F44, offset: 0x8F44, size: 0x8, addend: 0x0, symName: __Z5recurNSt3__16vectorI5PointNS_9allocatorIS1_EEEEii, symObjAddr: 0x4D4, symBinAddr: 0x100003614, symSize: 0x2AC }
  - { offsetInCU: 0x8FED, offset: 0x8FED, size: 0x8, addend: 0x0, symName: __ZNSt3__16vectorI5PointNS_9allocatorIS1_EEEC1ERKS4_, symObjAddr: 0x780, symBinAddr: 0x1000038C0, symSize: 0x34 }
  - { offsetInCU: 0x9026, offset: 0x9026, size: 0x8, addend: 0x0, symName: __ZNSt3__16vectorI5PointNS_9allocatorIS1_EEED1B7v160006Ev, symObjAddr: 0x7B4, symBinAddr: 0x1000038F4, symSize: 0x2C }
  - { offsetInCU: 0x904E, offset: 0x904E, size: 0x8, addend: 0x0, symName: __ZNSt3__16vectorI5PointNS_9allocatorIS1_EEEC1B7v160006Ev, symObjAddr: 0x7EC, symBinAddr: 0x10000392C, symSize: 0x2C }
  - { offsetInCU: 0x9076, offset: 0x9076, size: 0x8, addend: 0x0, symName: __ZNSt3__16vectorI5PointNS_9allocatorIS1_EEE9push_backB7v160006ERKS1_, symObjAddr: 0x818, symBinAddr: 0x100003958, symSize: 0x6C }
  - { offsetInCU: 0x90AB, offset: 0x90AB, size: 0x8, addend: 0x0, symName: __ZNKSt3__16vectorI5PointNS_9allocatorIS1_EEE4sizeB7v160006Ev, symObjAddr: 0x884, symBinAddr: 0x1000039C4, symSize: 0x28 }
  - { offsetInCU: 0x90CF, offset: 0x90CF, size: 0x8, addend: 0x0, symName: __Z7closestNSt3__16vectorI5PointNS_9allocatorIS1_EEEEi, symObjAddr: 0x8AC, symBinAddr: 0x1000039EC, symSize: 0xB8 }
  - { offsetInCU: 0x910A, offset: 0x910A, size: 0x8, addend: 0x0, symName: __Z10inputArrayv, symObjAddr: 0x9A0, symBinAddr: 0x100003AE0, symSize: 0x12C }
  - { offsetInCU: 0x917D, offset: 0x917D, size: 0x8, addend: 0x0, symName: _main, symObjAddr: 0xACC, symBinAddr: 0x100003C0C, symSize: 0x19C }
  - { offsetInCU: 0x91CD, offset: 0x91CD, size: 0x8, addend: 0x0, symName: __ZNSt3__16vectorI5PointNS_9allocatorIS1_EEEaSB7v160006EOS4_, symObjAddr: 0xC68, symBinAddr: 0x100003DA8, symSize: 0x34 }
  - { offsetInCU: 0x9202, offset: 0x9202, size: 0x8, addend: 0x0, symName: __ZNSt3__16vectorI5PointNS_9allocatorIS1_EEE11__make_iterB7v160006EPS1_, symObjAddr: 0xC9C, symBinAddr: 0x100003DDC, symSize: 0x34 }
  - { offsetInCU: 0x9235, offset: 0x9235, size: 0x8, addend: 0x0, symName: __ZNSt3__111__wrap_iterIP5PointEC1B7v160006EPKvS2_, symObjAddr: 0xCD0, symBinAddr: 0x100003E10, symSize: 0x3C }
  - { offsetInCU: 0x927A, offset: 0x927A, size: 0x8, addend: 0x0, symName: __ZNSt3__111__wrap_iterIP5PointEC2B7v160006EPKvS2_, symObjAddr: 0xD0C, symBinAddr: 0x100003E4C, symSize: 0x24 }
  - { offsetInCU: 0x92BE, offset: 0x92BE, size: 0x8, addend: 0x0, symName: __ZNSt3__18_IterOpsINS_17_ClassicAlgPolicyEE4nextB7v160006INS_11__wrap_iterIP5PointEEEET_S8_S8_, symObjAddr: 0xFCC, symBinAddr: 0x10000410C, symSize: 0x20 }
  - { offsetInCU: 0x92F2, offset: 0x92F2, size: 0x8, addend: 0x0, symName: __ZNKSt3__111__wrap_iterIP5PointE4baseB7v160006Ev, symObjAddr: 0x1164, symBinAddr: 0x1000042A4, symSize: 0x18 }
  - { offsetInCU: 0x9316, offset: 0x9316, size: 0x8, addend: 0x0, symName: __ZNKSt3__111__wrap_iterIP5PointEdeB7v160006Ev, symObjAddr: 0x12CC, symBinAddr: 0x10000440C, symSize: 0x18 }
  - { offsetInCU: 0x933B, offset: 0x933B, size: 0x8, addend: 0x0, symName: __ZNSt3__18_IterOpsINS_17_ClassicAlgPolicyEE9iter_swapB7v160006IRNS_11__wrap_iterIP5PointEES8_EEvOT_OT0_, symObjAddr: 0x12E4, symBinAddr: 0x100004424, symSize: 0x44 }
  - { offsetInCU: 0x937D, offset: 0x937D, size: 0x8, addend: 0x0, symName: __ZNSt3__111__wrap_iterIP5PointEppB7v160006Ev, symObjAddr: 0x1640, symBinAddr: 0x100004780, symSize: 0x20 }
  - { offsetInCU: 0x93A1, offset: 0x93A1, size: 0x8, addend: 0x0, symName: __ZNKSt3__111__wrap_iterIP5PointEplB7v160006El, symObjAddr: 0x16F8, symBinAddr: 0x100004838, symSize: 0x3C }
  - { offsetInCU: 0x93E1, offset: 0x93E1, size: 0x8, addend: 0x0, symName: __ZNSt3__111__wrap_iterIP5PointEpLB7v160006El, symObjAddr: 0x1734, symBinAddr: 0x100004874, symSize: 0x28 }
  - { offsetInCU: 0x9419, offset: 0x9419, size: 0x8, addend: 0x0, symName: __ZNSt3__18_IterOpsINS_17_ClassicAlgPolicyEE11__iter_moveB7v160006IRNS_11__wrap_iterIP5PointEEEENS_9enable_ifIXsr12is_referenceIDTdeclsr3stdE7declvalIRT_EEEEE5valueEDTclsr3stdE4movedeclsr3stdE7declvalISB_EEEEE4typeEOSA_, symObjAddr: 0x17E8, symBinAddr: 0x100004928, symSize: 0x28 }
  - { offsetInCU: 0x9445, offset: 0x9445, size: 0x8, addend: 0x0, symName: __ZNSt3__18_IterOpsINS_17_ClassicAlgPolicyEE25__validate_iter_referenceB7v160006IRNS_11__wrap_iterIP5PointEEEEvv, symObjAddr: 0x1810, symBinAddr: 0x100004950, symSize: 0x4 }
  - { offsetInCU: 0x9461, offset: 0x9461, size: 0x8, addend: 0x0, symName: __ZNSt3__111__wrap_iterIP5PointEmmB7v160006Ev, symObjAddr: 0x1948, symBinAddr: 0x100004A88, symSize: 0x20 }
  - { offsetInCU: 0x94A0, offset: 0x94A0, size: 0x8, addend: 0x0, symName: __ZNSt3__116_UnwrapAlgPolicyIRPFb5PointS1_EE10__get_compB7v160006ES4_, symObjAddr: 0x1C9C, symBinAddr: 0x100004DDC, symSize: 0x14 }
  - { offsetInCU: 0x94C2, offset: 0x94C2, size: 0x8, addend: 0x0, symName: __ZNSt3__18_IterOpsINS_17_ClassicAlgPolicyEE9iter_swapB7v160006IRP5PointS6_EEvOT_OT0_, symObjAddr: 0x2590, symBinAddr: 0x1000056D0, symSize: 0x34 }
  - { offsetInCU: 0x9505, offset: 0x9505, size: 0x8, addend: 0x0, symName: __ZNSt3__18_IterOpsINS_17_ClassicAlgPolicyEE11__iter_moveB7v160006IRP5PointEENS_9enable_ifIXsr12is_referenceIDTdeclsr3stdE7declvalIRT_EEEEE5valueEDTclsr3stdE4movedeclsr3stdE7declvalIS9_EEEEE4typeEOS8_, symObjAddr: 0x2F9C, symBinAddr: 0x1000060DC, symSize: 0x28 }
  - { offsetInCU: 0x9531, offset: 0x9531, size: 0x8, addend: 0x0, symName: __ZNSt3__18_IterOpsINS_17_ClassicAlgPolicyEE25__validate_iter_referenceB7v160006IRP5PointEEvv, symObjAddr: 0x2FC4, symBinAddr: 0x100006104, symSize: 0x4 }
  - { offsetInCU: 0x954E, offset: 0x954E, size: 0x8, addend: 0x0, symName: __ZNSt3__18_IterOpsINS_17_ClassicAlgPolicyEE4nextB7v160006IP5PointEET_S6_S6_, symObjAddr: 0x2FC8, symBinAddr: 0x100006108, symSize: 0x18 }
  - { offsetInCU: 0x9583, offset: 0x9583, size: 0x8, addend: 0x0, symName: __ZNSt3__118__unwrap_iter_implINS_11__wrap_iterIP5PointEELb1EE8__unwrapB7v160006ES4_, symObjAddr: 0x39D0, symBinAddr: 0x100006B10, symSize: 0x28 }
  - { offsetInCU: 0x95B0, offset: 0x95B0, size: 0x8, addend: 0x0, symName: __ZNSt3__119__to_address_helperINS_11__wrap_iterIP5PointEEvE6__callB7v160006ERKS4_, symObjAddr: 0x3A1C, symBinAddr: 0x100006B5C, symSize: 0x30 }
  - { offsetInCU: 0x95D3, offset: 0x95D3, size: 0x8, addend: 0x0, symName: __ZNSt3__114pointer_traitsINS_11__wrap_iterIP5PointEEE10to_addressB7v160006ES4_, symObjAddr: 0x3A4C, symBinAddr: 0x100006B8C, symSize: 0x2C }
  - { offsetInCU: 0x95F6, offset: 0x95F6, size: 0x8, addend: 0x0, symName: __ZNSt3__16vectorI5PointNS_9allocatorIS1_EEEC2ERKS4_, symObjAddr: 0x3A8C, symBinAddr: 0x100006BCC, symSize: 0x11C }
  - { offsetInCU: 0x965E, offset: 0x965E, size: 0x8, addend: 0x0, symName: __ZNSt3__116allocator_traitsINS_9allocatorI5PointEEE37select_on_container_copy_constructionB7v160006IS3_vvEES3_RKS3_, symObjAddr: 0x3BA8, symBinAddr: 0x100006CE8, symSize: 0x10 }
  - { offsetInCU: 0x968B, offset: 0x968B, size: 0x8, addend: 0x0, symName: __ZNKSt3__16vectorI5PointNS_9allocatorIS1_EEE7__allocB7v160006Ev, symObjAddr: 0x3BB8, symBinAddr: 0x100006CF8, symSize: 0x28 }
  - { offsetInCU: 0x96B9, offset: 0x96B9, size: 0x8, addend: 0x0, symName: __ZNSt3__117__compressed_pairIP5PointNS_9allocatorIS1_EEEC1B7v160006IDnS4_EEOT_OT0_, symObjAddr: 0x3BE0, symBinAddr: 0x100006D20, symSize: 0x3C }
  - { offsetInCU: 0x970F, offset: 0x970F, size: 0x8, addend: 0x0, symName: __ZNSt3__16vectorI5PointNS_9allocatorIS1_EEE16__destroy_vectorC1ERS4_, symObjAddr: 0x3C5C, symBinAddr: 0x100006D9C, symSize: 0x34 }
  - { offsetInCU: 0x9746, offset: 0x9746, size: 0x8, addend: 0x0, symName: __ZNSt3__16vectorI5PointNS_9allocatorIS1_EEE11__vallocateB7v160006Em, symObjAddr: 0x3CA0, symBinAddr: 0x100006DE0, symSize: 0xAC }
  - { offsetInCU: 0x9788, offset: 0x9788, size: 0x8, addend: 0x0, symName: __ZNSt3__16vectorI5PointNS_9allocatorIS1_EEE18__construct_at_endIPS1_Li0EEEvT_S7_m, symObjAddr: 0x3D4C, symBinAddr: 0x100006E8C, symSize: 0x94 }
  - { offsetInCU: 0x97F9, offset: 0x97F9, size: 0x8, addend: 0x0, symName: __ZNSt3__128__exception_guard_exceptionsINS_6vectorI5PointNS_9allocatorIS2_EEE16__destroy_vectorEE10__completeB7v160006Ev, symObjAddr: 0x3DE0, symBinAddr: 0x100006F20, symSize: 0x1C }
  - { offsetInCU: 0x981D, offset: 0x981D, size: 0x8, addend: 0x0, symName: __ZNSt3__128__exception_guard_exceptionsINS_6vectorI5PointNS_9allocatorIS2_EEE16__destroy_vectorEED1B7v160006Ev, symObjAddr: 0x3DFC, symBinAddr: 0x100006F3C, symSize: 0x2C }
  - { offsetInCU: 0x9845, offset: 0x9845, size: 0x8, addend: 0x0, symName: __ZNKSt3__117__compressed_pairIP5PointNS_9allocatorIS1_EEE6secondB7v160006Ev, symObjAddr: 0x3E28, symBinAddr: 0x100006F68, symSize: 0x24 }
  - { offsetInCU: 0x9869, offset: 0x9869, size: 0x8, addend: 0x0, symName: __ZNKSt3__122__compressed_pair_elemINS_9allocatorI5PointEELi1ELb1EE5__getB7v160006Ev, symObjAddr: 0x3E4C, symBinAddr: 0x100006F8C, symSize: 0x14 }
  - { offsetInCU: 0x988D, offset: 0x988D, size: 0x8, addend: 0x0, symName: __ZNSt3__117__compressed_pairIP5PointNS_9allocatorIS1_EEEC2B7v160006IDnS4_EEOT_OT0_, symObjAddr: 0x3E60, symBinAddr: 0x100006FA0, symSize: 0x44 }
  - { offsetInCU: 0x98E4, offset: 0x98E4, size: 0x8, addend: 0x0, symName: __ZNSt3__122__compressed_pair_elemIP5PointLi0ELb0EEC2B7v160006IDnvEEOT_, symObjAddr: 0x3EA4, symBinAddr: 0x100006FE4, symSize: 0x1C }
  - { offsetInCU: 0x9924, offset: 0x9924, size: 0x8, addend: 0x0, symName: __ZNSt3__122__compressed_pair_elemINS_9allocatorI5PointEELi1ELb1EEC2B7v160006IS3_vEEOT_, symObjAddr: 0x3EC0, symBinAddr: 0x100007000, symSize: 0x18 }
  - { offsetInCU: 0x9963, offset: 0x9963, size: 0x8, addend: 0x0, symName: __ZNSt3__128__exception_guard_exceptionsINS_6vectorI5PointNS_9allocatorIS2_EEE16__destroy_vectorEEC1B7v160006ES6_, symObjAddr: 0x3ED8, symBinAddr: 0x100007018, symSize: 0x34 }
  - { offsetInCU: 0x999A, offset: 0x999A, size: 0x8, addend: 0x0, symName: __ZNSt3__128__exception_guard_exceptionsINS_6vectorI5PointNS_9allocatorIS2_EEE16__destroy_vectorEEC2B7v160006ES6_, symObjAddr: 0x3F0C, symBinAddr: 0x10000704C, symSize: 0x24 }
  - { offsetInCU: 0x99D0, offset: 0x99D0, size: 0x8, addend: 0x0, symName: __ZNSt3__16vectorI5PointNS_9allocatorIS1_EEE16__destroy_vectorC2ERS4_, symObjAddr: 0x3F30, symBinAddr: 0x100007070, symSize: 0x20 }
  - { offsetInCU: 0x9A06, offset: 0x9A06, size: 0x8, addend: 0x0, symName: __ZNKSt3__16vectorI5PointNS_9allocatorIS1_EEE8max_sizeEv, symObjAddr: 0x3F50, symBinAddr: 0x100007090, symSize: 0x74 }
  - { offsetInCU: 0x9A2C, offset: 0x9A2C, size: 0x8, addend: 0x0, symName: __ZNKSt3__16vectorI5PointNS_9allocatorIS1_EEE20__throw_length_errorB7v160006Ev, symObjAddr: 0x3FC4, symBinAddr: 0x100007104, symSize: 0x1C }
  - { offsetInCU: 0x9A50, offset: 0x9A50, size: 0x8, addend: 0x0, symName: __ZNSt3__16vectorI5PointNS_9allocatorIS1_EEE7__allocB7v160006Ev, symObjAddr: 0x4020, symBinAddr: 0x100007160, symSize: 0x28 }
  - { offsetInCU: 0x9A74, offset: 0x9A74, size: 0x8, addend: 0x0, symName: __ZNSt3__16vectorI5PointNS_9allocatorIS1_EEE9__end_capB7v160006Ev, symObjAddr: 0x4048, symBinAddr: 0x100007188, symSize: 0x28 }
  - { offsetInCU: 0x9A98, offset: 0x9A98, size: 0x8, addend: 0x0, symName: __ZNKSt3__16vectorI5PointNS_9allocatorIS1_EEE14__annotate_newB7v160006Em, symObjAddr: 0x4070, symBinAddr: 0x1000071B0, symSize: 0xAC }
  - { offsetInCU: 0x9ACC, offset: 0x9ACC, size: 0x8, addend: 0x0, symName: __ZNSt3__116allocator_traitsINS_9allocatorI5PointEEE8max_sizeB7v160006IS3_vEEmRKS3_, symObjAddr: 0x4148, symBinAddr: 0x100007288, symSize: 0x24 }
  - { offsetInCU: 0x9AFA, offset: 0x9AFA, size: 0x8, addend: 0x0, symName: __ZNSt3__114numeric_limitsIlE3maxB7v160006Ev, symObjAddr: 0x416C, symBinAddr: 0x1000072AC, symSize: 0x14 }
  - { offsetInCU: 0x9B21, offset: 0x9B21, size: 0x8, addend: 0x0, symName: __ZNKSt3__16__lessImmEclB7v160006ERKmS3_, symObjAddr: 0x41D4, symBinAddr: 0x100007314, symSize: 0x34 }
  - { offsetInCU: 0x9B61, offset: 0x9B61, size: 0x8, addend: 0x0, symName: __ZNKSt3__19allocatorI5PointE8max_sizeB7v160006Ev, symObjAddr: 0x4208, symBinAddr: 0x100007348, symSize: 0x14 }
  - { offsetInCU: 0x9B86, offset: 0x9B86, size: 0x8, addend: 0x0, symName: __ZNSt3__123__libcpp_numeric_limitsIlLb1EE3maxB7v160006Ev, symObjAddr: 0x421C, symBinAddr: 0x10000735C, symSize: 0x8 }
  - { offsetInCU: 0x9B99, offset: 0x9B99, size: 0x8, addend: 0x0, symName: __ZNSt12length_errorC1B7v160006EPKc, symObjAddr: 0x4288, symBinAddr: 0x1000073C8, symSize: 0x34 }
  - { offsetInCU: 0x9BCF, offset: 0x9BCF, size: 0x8, addend: 0x0, symName: __ZNSt12length_errorC2B7v160006EPKc, symObjAddr: 0x42BC, symBinAddr: 0x1000073FC, symSize: 0x4C }
  - { offsetInCU: 0x9C05, offset: 0x9C05, size: 0x8, addend: 0x0, symName: __ZNSt3__19allocatorI5PointE8allocateB7v160006Em, symObjAddr: 0x4308, symBinAddr: 0x100007448, symSize: 0x84 }
  - { offsetInCU: 0x9C37, offset: 0x9C37, size: 0x8, addend: 0x0, symName: __ZNSt3__117__compressed_pairIP5PointNS_9allocatorIS1_EEE6secondB7v160006Ev, symObjAddr: 0x440C, symBinAddr: 0x10000754C, symSize: 0x24 }
  - { offsetInCU: 0x9C5B, offset: 0x9C5B, size: 0x8, addend: 0x0, symName: __ZNSt3__122__compressed_pair_elemINS_9allocatorI5PointEELi1ELb1EE5__getB7v160006Ev, symObjAddr: 0x4430, symBinAddr: 0x100007570, symSize: 0x14 }
  - { offsetInCU: 0x9C7F, offset: 0x9C7F, size: 0x8, addend: 0x0, symName: __ZNSt3__117__compressed_pairIP5PointNS_9allocatorIS1_EEE5firstB7v160006Ev, symObjAddr: 0x4444, symBinAddr: 0x100007584, symSize: 0x24 }
  - { offsetInCU: 0x9CA3, offset: 0x9CA3, size: 0x8, addend: 0x0, symName: __ZNSt3__122__compressed_pair_elemIP5PointLi0ELb0EE5__getB7v160006Ev, symObjAddr: 0x4468, symBinAddr: 0x1000075A8, symSize: 0x14 }
  - { offsetInCU: 0x9CC7, offset: 0x9CC7, size: 0x8, addend: 0x0, symName: __ZNKSt3__16vectorI5PointNS_9allocatorIS1_EEE31__annotate_contiguous_containerB7v160006EPKvS6_S6_S6_, symObjAddr: 0x447C, symBinAddr: 0x1000075BC, symSize: 0x20 }
  - { offsetInCU: 0x9D17, offset: 0x9D17, size: 0x8, addend: 0x0, symName: __ZNKSt3__16vectorI5PointNS_9allocatorIS1_EEE4dataB7v160006Ev, symObjAddr: 0x449C, symBinAddr: 0x1000075DC, symSize: 0x28 }
  - { offsetInCU: 0x9D3B, offset: 0x9D3B, size: 0x8, addend: 0x0, symName: __ZNKSt3__16vectorI5PointNS_9allocatorIS1_EEE8capacityB7v160006Ev, symObjAddr: 0x44C4, symBinAddr: 0x100007604, symSize: 0x40 }
  - { offsetInCU: 0x9D5F, offset: 0x9D5F, size: 0x8, addend: 0x0, symName: __ZNKSt3__16vectorI5PointNS_9allocatorIS1_EEE9__end_capB7v160006Ev, symObjAddr: 0x4504, symBinAddr: 0x100007644, symSize: 0x28 }
  - { offsetInCU: 0x9D83, offset: 0x9D83, size: 0x8, addend: 0x0, symName: __ZNKSt3__117__compressed_pairIP5PointNS_9allocatorIS1_EEE5firstB7v160006Ev, symObjAddr: 0x452C, symBinAddr: 0x10000766C, symSize: 0x24 }
  - { offsetInCU: 0x9DA7, offset: 0x9DA7, size: 0x8, addend: 0x0, symName: __ZNKSt3__122__compressed_pair_elemIP5PointLi0ELb0EE5__getB7v160006Ev, symObjAddr: 0x4550, symBinAddr: 0x100007690, symSize: 0x14 }
  - { offsetInCU: 0x9DE4, offset: 0x9DE4, size: 0x8, addend: 0x0, symName: __ZNSt3__16vectorI5PointNS_9allocatorIS1_EEE21_ConstructTransactionC1B7v160006ERS4_m, symObjAddr: 0x4564, symBinAddr: 0x1000076A4, symSize: 0x3C }
  - { offsetInCU: 0x9E2A, offset: 0x9E2A, size: 0x8, addend: 0x0, symName: __ZNSt3__16vectorI5PointNS_9allocatorIS1_EEE21_ConstructTransactionD1B7v160006Ev, symObjAddr: 0x469C, symBinAddr: 0x1000077DC, symSize: 0x2C }
  - { offsetInCU: 0x9E53, offset: 0x9E53, size: 0x8, addend: 0x0, symName: __ZNSt3__16vectorI5PointNS_9allocatorIS1_EEE21_ConstructTransactionC2B7v160006ERS4_m, symObjAddr: 0x46C8, symBinAddr: 0x100007808, symSize: 0x44 }
  - { offsetInCU: 0x9E98, offset: 0x9E98, size: 0x8, addend: 0x0, symName: __ZNSt3__129_AllocatorDestroyRangeReverseINS_9allocatorI5PointEEPS2_EC1B7v160006ERS3_RS4_S7_, symObjAddr: 0x4758, symBinAddr: 0x100007898, symSize: 0x44 }
  - { offsetInCU: 0x9EEE, offset: 0x9EEE, size: 0x8, addend: 0x0, symName: __ZNSt3__116allocator_traitsINS_9allocatorI5PointEEE9constructB7v160006IS2_JRS2_EvEEvRS3_PT_DpOT0_, symObjAddr: 0x479C, symBinAddr: 0x1000078DC, symSize: 0x34 }
  - { offsetInCU: 0x9F44, offset: 0x9F44, size: 0x8, addend: 0x0, symName: __ZNSt3__128__exception_guard_exceptionsINS_29_AllocatorDestroyRangeReverseINS_9allocatorI5PointEEPS3_EEE10__completeB7v160006Ev, symObjAddr: 0x47D0, symBinAddr: 0x100007910, symSize: 0x1C }
  - { offsetInCU: 0x9F68, offset: 0x9F68, size: 0x8, addend: 0x0, symName: __ZNSt3__128__exception_guard_exceptionsINS_29_AllocatorDestroyRangeReverseINS_9allocatorI5PointEEPS3_EEED1B7v160006Ev, symObjAddr: 0x47EC, symBinAddr: 0x10000792C, symSize: 0x2C }
  - { offsetInCU: 0x9F90, offset: 0x9F90, size: 0x8, addend: 0x0, symName: __ZNSt3__128__exception_guard_exceptionsINS_29_AllocatorDestroyRangeReverseINS_9allocatorI5PointEEPS3_EEEC1B7v160006ES6_, symObjAddr: 0x4818, symBinAddr: 0x100007958, symSize: 0x34 }
  - { offsetInCU: 0x9FC8, offset: 0x9FC8, size: 0x8, addend: 0x0, symName: __ZNSt3__128__exception_guard_exceptionsINS_29_AllocatorDestroyRangeReverseINS_9allocatorI5PointEEPS3_EEEC2B7v160006ES6_, symObjAddr: 0x484C, symBinAddr: 0x10000798C, symSize: 0x30 }
  - { offsetInCU: 0x9FFF, offset: 0x9FFF, size: 0x8, addend: 0x0, symName: __ZNSt3__129_AllocatorDestroyRangeReverseINS_9allocatorI5PointEEPS2_EC2B7v160006ERS3_RS4_S7_, symObjAddr: 0x487C, symBinAddr: 0x1000079BC, symSize: 0x38 }
  - { offsetInCU: 0xA053, offset: 0xA053, size: 0x8, addend: 0x0, symName: __ZNSt3__19allocatorI5PointE9constructB7v160006IS1_JRS1_EEEvPT_DpOT0_, symObjAddr: 0x48B4, symBinAddr: 0x1000079F4, symSize: 0x28 }
  - { offsetInCU: 0xA0A7, offset: 0xA0A7, size: 0x8, addend: 0x0, symName: __ZNSt3__128__exception_guard_exceptionsINS_29_AllocatorDestroyRangeReverseINS_9allocatorI5PointEEPS3_EEED2B7v160006Ev, symObjAddr: 0x48DC, symBinAddr: 0x100007A1C, symSize: 0x48 }
  - { offsetInCU: 0xA0CF, offset: 0xA0CF, size: 0x8, addend: 0x0, symName: __ZNKSt3__129_AllocatorDestroyRangeReverseINS_9allocatorI5PointEEPS2_EclB7v160006Ev, symObjAddr: 0x4924, symBinAddr: 0x100007A64, symSize: 0x68 }
  - { offsetInCU: 0xA0F3, offset: 0xA0F3, size: 0x8, addend: 0x0, symName: __ZNSt3__116reverse_iteratorIP5PointEC1B7v160006ES2_, symObjAddr: 0x49FC, symBinAddr: 0x100007B3C, symSize: 0x34 }
  - { offsetInCU: 0xA12A, offset: 0xA12A, size: 0x8, addend: 0x0, symName: __ZNSt3__116allocator_traitsINS_9allocatorI5PointEEE7destroyB7v160006IS2_vEEvRS3_PT_, symObjAddr: 0x4A78, symBinAddr: 0x100007BB8, symSize: 0x2C }
  - { offsetInCU: 0xA166, offset: 0xA166, size: 0x8, addend: 0x0, symName: __ZNSt3__116reverse_iteratorIP5PointEppB7v160006Ev, symObjAddr: 0x4AC8, symBinAddr: 0x100007C08, symSize: 0x20 }
  - { offsetInCU: 0xA18A, offset: 0xA18A, size: 0x8, addend: 0x0, symName: __ZNKSt3__116reverse_iteratorIP5PointE4baseB7v160006Ev, symObjAddr: 0x4AE8, symBinAddr: 0x100007C28, symSize: 0x18 }
  - { offsetInCU: 0xA1AE, offset: 0xA1AE, size: 0x8, addend: 0x0, symName: __ZNSt3__19allocatorI5PointE7destroyB7v160006EPS1_, symObjAddr: 0x4B00, symBinAddr: 0x100007C40, symSize: 0x14 }
  - { offsetInCU: 0xA1E6, offset: 0xA1E6, size: 0x8, addend: 0x0, symName: __ZNSt3__119__to_address_helperINS_16reverse_iteratorIP5PointEEvE6__callB7v160006ERKS4_, symObjAddr: 0x4B14, symBinAddr: 0x100007C54, symSize: 0x4C }
  - { offsetInCU: 0xA208, offset: 0xA208, size: 0x8, addend: 0x0, symName: __ZNKSt3__116reverse_iteratorIP5PointEptB7v160006Ev, symObjAddr: 0x4B60, symBinAddr: 0x100007CA0, symSize: 0x24 }
  - { offsetInCU: 0xA22C, offset: 0xA22C, size: 0x8, addend: 0x0, symName: __ZNKSt3__116reverse_iteratorIP5PointEdeB7v160006Ev, symObjAddr: 0x4B84, symBinAddr: 0x100007CC4, symSize: 0x28 }
  - { offsetInCU: 0xA25F, offset: 0xA25F, size: 0x8, addend: 0x0, symName: __ZNSt3__116reverse_iteratorIP5PointEC2B7v160006ES2_, symObjAddr: 0x4BAC, symBinAddr: 0x100007CEC, symSize: 0x28 }
  - { offsetInCU: 0xA295, offset: 0xA295, size: 0x8, addend: 0x0, symName: __ZNSt3__16vectorI5PointNS_9allocatorIS1_EEE21_ConstructTransactionD2B7v160006Ev, symObjAddr: 0x4BD4, symBinAddr: 0x100007D14, symSize: 0x20 }
  - { offsetInCU: 0xA2BC, offset: 0xA2BC, size: 0x8, addend: 0x0, symName: __ZNSt3__128__exception_guard_exceptionsINS_6vectorI5PointNS_9allocatorIS2_EEE16__destroy_vectorEED2B7v160006Ev, symObjAddr: 0x4BF4, symBinAddr: 0x100007D34, symSize: 0x48 }
  - { offsetInCU: 0xA2E4, offset: 0xA2E4, size: 0x8, addend: 0x0, symName: __ZNSt3__16vectorI5PointNS_9allocatorIS1_EEE16__destroy_vectorclB7v160006Ev, symObjAddr: 0x4C3C, symBinAddr: 0x100007D7C, symSize: 0x9C }
  - { offsetInCU: 0xA308, offset: 0xA308, size: 0x8, addend: 0x0, symName: __ZNKSt3__16vectorI5PointNS_9allocatorIS1_EEE17__annotate_deleteB7v160006Ev, symObjAddr: 0x4CD8, symBinAddr: 0x100007E18, symSize: 0xB8 }
  - { offsetInCU: 0xA32C, offset: 0xA32C, size: 0x8, addend: 0x0, symName: __ZNSt3__16vectorI5PointNS_9allocatorIS1_EEE7__clearB7v160006Ev, symObjAddr: 0x4DA0, symBinAddr: 0x100007EE0, symSize: 0x28 }
  - { offsetInCU: 0xA351, offset: 0xA351, size: 0x8, addend: 0x0, symName: __ZNSt3__116allocator_traitsINS_9allocatorI5PointEEE10deallocateB7v160006ERS3_PS2_m, symObjAddr: 0x4DC8, symBinAddr: 0x100007F08, symSize: 0x34 }
  - { offsetInCU: 0xA392, offset: 0xA392, size: 0x8, addend: 0x0, symName: __ZNSt3__16vectorI5PointNS_9allocatorIS1_EEE22__base_destruct_at_endB7v160006EPS1_, symObjAddr: 0x4DFC, symBinAddr: 0x100007F3C, symSize: 0xA0 }
  - { offsetInCU: 0xA3D4, offset: 0xA3D4, size: 0x8, addend: 0x0, symName: __ZNSt3__19allocatorI5PointE10deallocateB7v160006EPS1_m, symObjAddr: 0x4E9C, symBinAddr: 0x100007FDC, symSize: 0x70 }
  - { offsetInCU: 0xA414, offset: 0xA414, size: 0x8, addend: 0x0, symName: __ZNSt3__16vectorI5PointNS_9allocatorIS1_EEED2B7v160006Ev, symObjAddr: 0x4F88, symBinAddr: 0x1000080C8, symSize: 0x3C }
  - { offsetInCU: 0xA43C, offset: 0xA43C, size: 0x8, addend: 0x0, symName: __ZNSt3__16vectorI5PointNS_9allocatorIS1_EEEC2B7v160006Ev, symObjAddr: 0x4FC4, symBinAddr: 0x100008104, symSize: 0x4C }
  - { offsetInCU: 0xA469, offset: 0xA469, size: 0x8, addend: 0x0, symName: __ZNSt3__117__compressed_pairIP5PointNS_9allocatorIS1_EEEC1B7v160006IDnNS_18__default_init_tagEEEOT_OT0_, symObjAddr: 0x5010, symBinAddr: 0x100008150, symSize: 0x3C }
  - { offsetInCU: 0xA4BF, offset: 0xA4BF, size: 0x8, addend: 0x0, symName: __ZNSt3__117__compressed_pairIP5PointNS_9allocatorIS1_EEEC2B7v160006IDnNS_18__default_init_tagEEEOT_OT0_, symObjAddr: 0x504C, symBinAddr: 0x10000818C, symSize: 0x40 }
  - { offsetInCU: 0xA515, offset: 0xA515, size: 0x8, addend: 0x0, symName: __ZNSt3__122__compressed_pair_elemINS_9allocatorI5PointEELi1ELb1EEC2B7v160006ENS_18__default_init_tagE, symObjAddr: 0x508C, symBinAddr: 0x1000081CC, symSize: 0x2C }
  - { offsetInCU: 0xA547, offset: 0xA547, size: 0x8, addend: 0x0, symName: __ZNSt3__19allocatorI5PointEC2B7v160006Ev, symObjAddr: 0x50B8, symBinAddr: 0x1000081F8, symSize: 0x2C }
  - { offsetInCU: 0xA570, offset: 0xA570, size: 0x8, addend: 0x0, symName: __ZNSt3__116__non_trivial_ifILb1ENS_9allocatorI5PointEEEC2B7v160006Ev, symObjAddr: 0x50E4, symBinAddr: 0x100008224, symSize: 0x14 }
  - { offsetInCU: 0xA597, offset: 0xA597, size: 0x8, addend: 0x0, symName: __ZNSt3__16vectorI5PointNS_9allocatorIS1_EEE22__construct_one_at_endB7v160006IJRKS1_EEEvDpOT_, symObjAddr: 0x50F8, symBinAddr: 0x100008238, symSize: 0x98 }
  - { offsetInCU: 0xA5E4, offset: 0xA5E4, size: 0x8, addend: 0x0, symName: __ZNSt3__16vectorI5PointNS_9allocatorIS1_EEE21__push_back_slow_pathIRKS1_EEvOT_, symObjAddr: 0x5190, symBinAddr: 0x1000082D0, symSize: 0xE0 }
  - { offsetInCU: 0xA641, offset: 0xA641, size: 0x8, addend: 0x0, symName: __ZNSt3__116allocator_traitsINS_9allocatorI5PointEEE9constructB7v160006IS2_JRKS2_EvEEvRS3_PT_DpOT0_, symObjAddr: 0x5270, symBinAddr: 0x1000083B0, symSize: 0x34 }
  - { offsetInCU: 0xA697, offset: 0xA697, size: 0x8, addend: 0x0, symName: __ZNSt3__19allocatorI5PointE9constructB7v160006IS1_JRKS1_EEEvPT_DpOT0_, symObjAddr: 0x52A4, symBinAddr: 0x1000083E4, symSize: 0x28 }
  - { offsetInCU: 0xA6EB, offset: 0xA6EB, size: 0x8, addend: 0x0, symName: __ZNKSt3__16vectorI5PointNS_9allocatorIS1_EEE11__recommendB7v160006Em, symObjAddr: 0x52CC, symBinAddr: 0x10000840C, symSize: 0xB4 }
  - { offsetInCU: 0xA73E, offset: 0xA73E, size: 0x8, addend: 0x0, symName: __ZNSt3__114__split_bufferI5PointRNS_9allocatorIS1_EEEC1EmmS4_, symObjAddr: 0x5380, symBinAddr: 0x1000084C0, symSize: 0x44 }
  - { offsetInCU: 0xA792, offset: 0xA792, size: 0x8, addend: 0x0, symName: __ZNSt3__114__split_bufferI5PointRNS_9allocatorIS1_EEED1Ev, symObjAddr: 0x54DC, symBinAddr: 0x10000861C, symSize: 0x2C }
  - { offsetInCU: 0xA7BC, offset: 0xA7BC, size: 0x8, addend: 0x0, symName: __ZNSt3__114__split_bufferI5PointRNS_9allocatorIS1_EEEC2EmmS4_, symObjAddr: 0x5588, symBinAddr: 0x1000086C8, symSize: 0xD4 }
  - { offsetInCU: 0xA82D, offset: 0xA82D, size: 0x8, addend: 0x0, symName: __ZNSt3__117__compressed_pairIP5PointRNS_9allocatorIS1_EEEC1B7v160006IDnS5_EEOT_OT0_, symObjAddr: 0x565C, symBinAddr: 0x10000879C, symSize: 0x3C }
  - { offsetInCU: 0xA883, offset: 0xA883, size: 0x8, addend: 0x0, symName: __ZNSt3__114__split_bufferI5PointRNS_9allocatorIS1_EEE7__allocB7v160006Ev, symObjAddr: 0x5698, symBinAddr: 0x1000087D8, symSize: 0x28 }
  - { offsetInCU: 0xA8A7, offset: 0xA8A7, size: 0x8, addend: 0x0, symName: __ZNSt3__114__split_bufferI5PointRNS_9allocatorIS1_EEE9__end_capB7v160006Ev, symObjAddr: 0x56C0, symBinAddr: 0x100008800, symSize: 0x28 }
  - { offsetInCU: 0xA8CB, offset: 0xA8CB, size: 0x8, addend: 0x0, symName: __ZNSt3__117__compressed_pairIP5PointRNS_9allocatorIS1_EEEC2B7v160006IDnS5_EEOT_OT0_, symObjAddr: 0x56E8, symBinAddr: 0x100008828, symSize: 0x48 }
  - { offsetInCU: 0xA922, offset: 0xA922, size: 0x8, addend: 0x0, symName: __ZNSt3__122__compressed_pair_elemIRNS_9allocatorI5PointEELi1ELb0EEC2B7v160006IS4_vEEOT_, symObjAddr: 0x5730, symBinAddr: 0x100008870, symSize: 0x20 }
  - { offsetInCU: 0xA961, offset: 0xA961, size: 0x8, addend: 0x0, symName: __ZNSt3__117__compressed_pairIP5PointRNS_9allocatorIS1_EEE6secondB7v160006Ev, symObjAddr: 0x5750, symBinAddr: 0x100008890, symSize: 0x28 }
  - { offsetInCU: 0xA985, offset: 0xA985, size: 0x8, addend: 0x0, symName: __ZNSt3__122__compressed_pair_elemIRNS_9allocatorI5PointEELi1ELb0EE5__getB7v160006Ev, symObjAddr: 0x5778, symBinAddr: 0x1000088B8, symSize: 0x18 }
  - { offsetInCU: 0xA9A9, offset: 0xA9A9, size: 0x8, addend: 0x0, symName: __ZNSt3__117__compressed_pairIP5PointRNS_9allocatorIS1_EEE5firstB7v160006Ev, symObjAddr: 0x5790, symBinAddr: 0x1000088D0, symSize: 0x24 }
  - { offsetInCU: 0xA9F0, offset: 0xA9F0, size: 0x8, addend: 0x0, symName: __ZNKSt3__111__move_loopINS_17_ClassicAlgPolicyEEclB7v160006INS_16reverse_iteratorIP5PointEES7_S7_EENS_4pairIT_T1_EES9_T0_SA_, symObjAddr: 0x5C1C, symBinAddr: 0x100008D5C, symSize: 0xA0 }
  - { offsetInCU: 0xAA5A, offset: 0xAA5A, size: 0x8, addend: 0x0, symName: __ZNSt3__18_IterOpsINS_17_ClassicAlgPolicyEE11__iter_moveB7v160006IRNS_16reverse_iteratorIP5PointEEEENS_9enable_ifIXsr12is_referenceIDTdeclsr3stdE7declvalIRT_EEEEE5valueEDTclsr3stdE4movedeclsr3stdE7declvalISB_EEEEE4typeEOSA_, symObjAddr: 0x5E1C, symBinAddr: 0x100008F5C, symSize: 0x28 }
  - { offsetInCU: 0xAA86, offset: 0xAA86, size: 0x8, addend: 0x0, symName: __ZNSt3__18_IterOpsINS_17_ClassicAlgPolicyEE25__validate_iter_referenceB7v160006IRNS_16reverse_iteratorIP5PointEEEEvv, symObjAddr: 0x5E44, symBinAddr: 0x100008F84, symSize: 0x4 }
  - { offsetInCU: 0xAAA3, offset: 0xAAA3, size: 0x8, addend: 0x0, symName: __ZNSt3__118__unwrap_iter_implINS_16reverse_iteratorIP5PointEELb0EE8__unwrapB7v160006ES4_, symObjAddr: 0x5E48, symBinAddr: 0x100008F88, symSize: 0x24 }
  - { offsetInCU: 0xAAC4, offset: 0xAAC4, size: 0x8, addend: 0x0, symName: __ZNSt3__14pairINS_16reverse_iteratorIP5PointEES4_EC1B7v160006ERKS4_S7_, symObjAddr: 0x5E6C, symBinAddr: 0x100008FAC, symSize: 0x3C }
  - { offsetInCU: 0xAB09, offset: 0xAB09, size: 0x8, addend: 0x0, symName: __ZNSt3__14pairINS_16reverse_iteratorIP5PointEES4_EC2B7v160006ERKS4_S7_, symObjAddr: 0x5EA8, symBinAddr: 0x100008FE8, symSize: 0x34 }
  - { offsetInCU: 0xAB4D, offset: 0xAB4D, size: 0x8, addend: 0x0, symName: __ZNSt3__118__unwrap_iter_implINS_16reverse_iteratorIP5PointEELb0EE8__rewrapB7v160006ES4_S4_, symObjAddr: 0x5EDC, symBinAddr: 0x10000901C, symSize: 0x2C }
  - { offsetInCU: 0xAB78, offset: 0xAB78, size: 0x8, addend: 0x0, symName: __ZNSt3__114__split_bufferI5PointRNS_9allocatorIS1_EEED2Ev, symObjAddr: 0x5F08, symBinAddr: 0x100009048, symSize: 0x80 }
  - { offsetInCU: 0xABA2, offset: 0xABA2, size: 0x8, addend: 0x0, symName: __ZNSt3__114__split_bufferI5PointRNS_9allocatorIS1_EEE5clearB7v160006Ev, symObjAddr: 0x5F88, symBinAddr: 0x1000090C8, symSize: 0x28 }
  - { offsetInCU: 0xABC6, offset: 0xABC6, size: 0x8, addend: 0x0, symName: __ZNKSt3__114__split_bufferI5PointRNS_9allocatorIS1_EEE8capacityB7v160006Ev, symObjAddr: 0x5FB0, symBinAddr: 0x1000090F0, symSize: 0x40 }
  - { offsetInCU: 0xABEA, offset: 0xABEA, size: 0x8, addend: 0x0, symName: __ZNSt3__114__split_bufferI5PointRNS_9allocatorIS1_EEE17__destruct_at_endB7v160006EPS1_, symObjAddr: 0x5FF0, symBinAddr: 0x100009130, symSize: 0x2C }
  - { offsetInCU: 0xAC1C, offset: 0xAC1C, size: 0x8, addend: 0x0, symName: __ZNSt3__114__split_bufferI5PointRNS_9allocatorIS1_EEE17__destruct_at_endB7v160006EPS1_NS_17integral_constantIbLb0EEE, symObjAddr: 0x601C, symBinAddr: 0x10000915C, symSize: 0x94 }
  - { offsetInCU: 0xAC5A, offset: 0xAC5A, size: 0x8, addend: 0x0, symName: __ZNKSt3__114__split_bufferI5PointRNS_9allocatorIS1_EEE9__end_capB7v160006Ev, symObjAddr: 0x60B0, symBinAddr: 0x1000091F0, symSize: 0x28 }
  - { offsetInCU: 0xAC7E, offset: 0xAC7E, size: 0x8, addend: 0x0, symName: __ZNKSt3__117__compressed_pairIP5PointRNS_9allocatorIS1_EEE5firstB7v160006Ev, symObjAddr: 0x60D8, symBinAddr: 0x100009218, symSize: 0x24 }
  - { offsetInCU: 0xACAC, offset: 0xACAC, size: 0x8, addend: 0x0, symName: __ZNKSt3__16__lessI5PointS1_EclB7v160006ERKS1_S4_, symObjAddr: 0x6580, symBinAddr: 0x1000096C0, symSize: 0x34 }
  - { offsetInCU: 0xACEC, offset: 0xACEC, size: 0x8, addend: 0x0, symName: __ZNK5PointltERKS_, symObjAddr: 0x6920, symBinAddr: 0x100009A60, symSize: 0x90 }
  - { offsetInCU: 0xAD24, offset: 0xAD24, size: 0x8, addend: 0x0, symName: __ZNSt3__116_UnwrapAlgPolicyIRNS_6__lessI5PointS2_EEE10__get_compB7v160006ES4_, symObjAddr: 0x6D90, symBinAddr: 0x100009ED0, symSize: 0x14 }
  - { offsetInCU: 0xAD45, offset: 0xAD45, size: 0x8, addend: 0x0, symName: __ZNSt3__16vectorI5PointNS_9allocatorIS1_EEE13__move_assignERS4_NS_17integral_constantIbLb1EEE, symObjAddr: 0x855C, symBinAddr: 0x10000B69C, symSize: 0xA4 }
  - { offsetInCU: 0xAD85, offset: 0xAD85, size: 0x8, addend: 0x0, symName: __ZNSt3__16vectorI5PointNS_9allocatorIS1_EEE13__vdeallocateEv, symObjAddr: 0x8600, symBinAddr: 0x10000B740, symSize: 0x8C }
  - { offsetInCU: 0xADAB, offset: 0xADAB, size: 0x8, addend: 0x0, symName: __ZNSt3__16vectorI5PointNS_9allocatorIS1_EEE19__move_assign_allocB7v160006ERS4_, symObjAddr: 0x868C, symBinAddr: 0x10000B7CC, symSize: 0x2C }
  - { offsetInCU: 0xADDE, offset: 0xADDE, size: 0x8, addend: 0x0, symName: __ZNSt3__16vectorI5PointNS_9allocatorIS1_EEE5clearB7v160006Ev, symObjAddr: 0x86CC, symBinAddr: 0x10000B80C, symSize: 0x4C }
  - { offsetInCU: 0xAE11, offset: 0xAE11, size: 0x8, addend: 0x0, symName: __ZNKSt3__16vectorI5PointNS_9allocatorIS1_EEE17__annotate_shrinkB7v160006Em, symObjAddr: 0x8718, symBinAddr: 0x10000B858, symSize: 0xB4 }
  - { offsetInCU: 0xAE44, offset: 0xAE44, size: 0x8, addend: 0x0, symName: __ZNSt3__16vectorI5PointNS_9allocatorIS1_EEE19__move_assign_allocB7v160006ERS4_NS_17integral_constantIbLb1EEE, symObjAddr: 0x87CC, symBinAddr: 0x10000B90C, symSize: 0x38 }
...
